

Microchip MPLAB XC8 Assembler V2.30 build 20200825195618 
                                                                                               Tue May 27 09:46:19 2025

Microchip MPLAB XC8 C Compiler v2.30 (Free license) build 20200825195618 Og1 
     1                           	processor	18F8722
     2                           	fnconf	rparam,??,?,0
     3                           	pagewidth 120
     4                           	opt	flic
     5                           	psect	idataBANK0,global,class=CODE,delta=1,noexec
     6                           	psect	idataBANK1,global,class=CODE,delta=1,noexec
     7                           	psect	smallconst,global,reloc=2,class=SMALLCONST,delta=1,noexec
     8                           	psect	cinit,global,reloc=2,class=CODE,delta=1
     9                           	psect	bssCOMRAM,global,class=COMRAM,space=1,delta=1,lowdata,noexec
    10                           	psect	bssBANK0,global,class=BANK0,space=1,delta=1,lowdata,noexec
    11                           	psect	dataBANK0,global,class=BANK0,space=1,delta=1,lowdata,noexec
    12                           	psect	bssBANK1,global,class=BANK1,space=1,delta=1,lowdata,noexec
    13                           	psect	dataBANK1,global,class=BANK1,space=1,delta=1,lowdata,noexec
    14                           	psect	bssBANK2,global,class=BANK2,space=1,delta=1,lowdata,noexec
    15                           	psect	bssBIGRAM,global,class=BIGRAM,space=1,delta=1,noexec
    16                           	psect	cstackBANK2,global,class=BANK2,space=1,delta=1,lowdata,noexec
    17                           	psect	cstackBANK0,global,class=BANK0,space=1,delta=1,lowdata,noexec
    18                           	psect	cstackCOMRAM,global,class=COMRAM,space=1,delta=1,lowdata,noexec
    19                           	psect	text0,global,reloc=2,class=CODE,delta=1
    20                           	psect	text1,global,reloc=2,class=CODE,delta=1
    21                           	psect	text2,global,reloc=2,class=CODE,delta=1
    22                           	psect	text3,global,reloc=2,class=CODE,delta=1
    23                           	psect	text4,global,reloc=2,class=CODE,delta=1
    24                           	psect	text5,global,reloc=2,class=CODE,delta=1
    25                           	psect	text6,global,reloc=2,class=CODE,delta=1
    26                           	psect	text7,global,reloc=2,class=CODE,delta=1
    27                           	psect	text8,global,reloc=2,class=CODE,delta=1
    28                           	psect	text9,global,reloc=2,class=CODE,delta=1
    29                           	psect	text10,global,reloc=2,class=CODE,delta=1
    30                           	psect	text11,global,reloc=2,class=CODE,delta=1,group=3
    31                           	psect	text12,global,reloc=2,class=CODE,delta=1,group=1
    32                           	psect	text13,global,reloc=2,class=CODE,delta=1,group=1
    33                           	psect	text14,global,reloc=2,class=CODE,delta=1,group=1
    34                           	psect	text15,global,reloc=2,class=CODE,delta=1,group=1
    35                           	psect	text16,global,reloc=2,class=CODE,delta=1,group=3
    36                           	psect	text17,global,reloc=2,class=CODE,delta=1,group=3
    37                           	psect	text18,global,reloc=2,class=CODE,delta=1,group=2
    38                           	psect	text19,global,reloc=2,class=CODE,delta=1,group=2
    39                           	psect	text20,global,reloc=2,class=CODE,delta=1,group=1
    40                           	psect	text21,global,reloc=2,class=CODE,delta=1,group=3
    41                           	psect	text22,global,reloc=2,class=CODE,delta=1,group=3
    42                           	psect	text23,global,reloc=2,class=CODE,delta=1,group=3
    43                           	psect	text24,global,reloc=2,class=CODE,delta=1,group=3
    44                           	psect	text25,global,reloc=2,class=CODE,delta=1,group=3
    45                           	psect	text26,global,reloc=2,class=CODE,delta=1,group=2
    46                           	psect	text27,global,reloc=2,class=CODE,delta=1
    47                           	psect	text28,global,reloc=2,class=CODE,delta=1
    48                           	psect	text29,global,reloc=2,class=CODE,delta=1
    49                           	psect	text30,global,reloc=2,class=CODE,delta=1,inline
    50                           	psect	text31,global,reloc=2,class=CODE,delta=1,inline
    51                           	psect	text32,global,reloc=2,class=CODE,delta=1
    52                           	psect	text33,global,reloc=2,class=CODE,delta=1
    53                           	psect	text34,global,reloc=2,class=CODE,delta=1
    54                           	psect	intcode,global,reloc=2,class=CODE,delta=1
    55                           	psect	intcode_body,global,reloc=2,class=CODE,delta=1
    56                           	psect	text36,global,reloc=2,class=CODE,delta=1
    57                           	psect	text37,global,reloc=2,class=CODE,delta=1
    58                           	psect	text38,global,reloc=2,class=CODE,delta=1
    59                           	psect	text39,global,reloc=2,class=CODE,delta=1
    60                           	psect	text40,global,reloc=2,class=CODE,delta=1,group=2
    61                           	psect	text41,global,reloc=2,class=CODE,delta=1,group=2
    62                           	psect	intsave_regs,global,class=BIGRAM,space=1,delta=1,noexec
    63                           	psect	rparam,global,class=COMRAM,space=1,delta=1,noexec
    64                           	psect	temp,global,ovrld,common,class=COMRAM,space=1,delta=1
    65                           	psect	idloc,global,abs,ovrld,class=IDLOC,space=5,delta=1,noexec
    66                           	psect	config,global,abs,ovrld,class=CONFIG,space=4,delta=1,noexec
    67  0000                     
    68                           ; Version 2.20
    69                           ; Generated 12/02/2020 GMT
    70                           ; 
    71                           ; Copyright © 2020, Microchip Technology Inc. and its subsidiaries ("Microchip")
    72                           ; All rights reserved.
    73                           ; 
    74                           ; This software is developed by Microchip Technology Inc. and its subsidiaries ("Microch
      +                          ip").
    75                           ; 
    76                           ; Redistribution and use in source and binary forms, with or without modification, are
    77                           ; permitted provided that the following conditions are met:
    78                           ; 
    79                           ;     1. Redistributions of source code must retain the above copyright notice, this lis
      +                          t of
    80                           ;        conditions and the following disclaimer.
    81                           ; 
    82                           ;     2. Redistributions in binary form must reproduce the above copyright notice, this 
      +                          list
    83                           ;        of conditions and the following disclaimer in the documentation and/or other
    84                           ;        materials provided with the distribution.
    85                           ; 
    86                           ;     3. Microchip's name may not be used to endorse or promote products derived from th
      +                          is
    87                           ;        software without specific prior written permission.
    88                           ; 
    89                           ; THIS SOFTWARE IS PROVIDED BY MICROCHIP "AS IS" AND ANY EXPRESS OR IMPLIED WARRANTIES,
    90                           ; INCLUDING, BUT NOT LIMITED TO, THE IMPLIED WARRANTIES OF MERCHANTABILITY AND FITNESS F
      +                          OR
    91                           ; PURPOSE ARE DISCLAIMED.  IN NO EVENT SHALL MICROCHIP BE LIABLE FOR ANY DIRECT, INDIREC
      +                          T,
    92                           ; INCIDENTAL, SPECIAL, EXEMPLARY, OR CONSEQUENTIAL DAMAGES (INCLUDING BUT NOT LIMITED TO
    93                           ; PROCUREMENT OF SUBSTITUTE GOODS OR SERVICES; LOSS OF USE, DATA OR PROFITS; OR BUSINESS
    94                           ; INTERRUPTION) HOWSOEVER CAUSED AND ON ANY THEORY OF LIABILITY, WHETHER IN CONTRACT, ST
      +                          RICT
    95                           ; LIABILITY, OR TORT (INCLUDING NEGLIGENCE OR OTHERWISE) ARISING IN ANY WAY OUT OF THE U
      +                          SE OF
    96                           ; THIS SOFTWARE, EVEN IF ADVISED OF THE POSSIBILITY OF SUCH DAMAGE.
    97                           ; 
    98                           ; 
    99                           ; Code-generator required, PIC18F8722 Definitions
   100                           ; 
   101                           ; SFR Addresses
   102  0000                     
   103                           	psect	idataBANK0
   104  003198                     __pidataBANK0:
   105                           	callstack 0
   106                           
   107                           ;initializer for try_park@F4992
   108  003198  FFFF               	dw	65535
   109  00319A  FFFF               	dw	65535
   110                           
   111                           ;initializer for _seven_seg_value
   112  00319C  03DB               	dw	987
   113                           
   114                           ;initializer for _empty_space
   115  00319E  0028               	dw	40
   116                           
   117                           	psect	idataBANK1
   118  003186                     __pidataBANK1:
   119                           	callstack 0
   120                           
   121                           ;initializer for _digit_map
   122  003186  3F                 	db	63
   123  003187  06                 	db	6
   124  003188  5B                 	db	91
   125  003189  4F                 	db	79
   126  00318A  66                 	db	102
   127  00318B  6D                 	db	109
   128  00318C  7D                 	db	125
   129  00318D  07                 	db	7
   130  00318E  7F                 	db	127
   131  00318F  6F                 	db	111
   132                           
   133                           ;initializer for _tens_power
   134  003190  0001               	dw	1
   135  003192  000A               	dw	10
   136  003194  0064               	dw	100
   137  003196  03E8               	dw	1000
   138  0000                     _TRISJ	set	3994
   139  0000                     _T0CONbits	set	4053
   140  0000                     _ADRESL	set	4035
   141  0000                     _ADRESH	set	4036
   142  0000                     _ADCON2	set	4032
   143  0000                     _ADCON1	set	4033
   144  0000                     _ADCON0	set	4034
   145  0000                     _TRISH	set	3993
   146  0000                     _T0CON	set	4053
   147  0000                     _PIR1	set	3998
   148  0000                     _INTCON2bits	set	4081
   149  0000                     _TRISB	set	3987
   150  0000                     _INTCON	set	4082
   151  0000                     _SPBRG1	set	4015
   152  0000                     _SPBRGH1	set	3967
   153  0000                     _BAUDCON1bits	set	3966
   154  0000                     _RCSTA1	set	4011
   155  0000                     _TXSTA1	set	4012
   156  0000                     _TRISCbits	set	3988
   157  0000                     _PORTB	set	3969
   158  0000                     _PORTH	set	3975
   159  0000                     _PORTJ	set	3976
   160  0000                     _TMR0L	set	4054
   161  0000                     _TMR0H	set	4055
   162  0000                     _INTCONbits	set	4082
   163  0000                     _TXSTA1bits	set	4012
   164  0000                     _TXREG1	set	4013
   165  0000                     _RCSTA1bits	set	4011
   166  0000                     _RCREG1	set	4014
   167  0000                     _PIR1bits	set	3998
   168  0000                     _PIE1bits	set	3997
   169  0000                     _GODONE	set	32273
   170                           
   171                           	psect	smallconst
   172  001000                     __psmallconst:
   173                           	callstack 0
   174  001000  00                 	db	0
   175  001001                     STR_2:
   176  001001  24                 	db	36
   177  001002  53                 	db	83	;'S'
   178  001003  50                 	db	80	;'P'
   179  001004  43                 	db	67	;'C'
   180  001005  25                 	db	37
   181  001006  30                 	db	48	;'0'
   182  001007  33                 	db	51	;'3'
   183  001008  75                 	db	117	;'u'
   184  001009  25                 	db	37
   185  00100A  63                 	db	99	;'c'
   186  00100B  25                 	db	37
   187  00100C  30                 	db	48	;'0'
   188  00100D  32                 	db	50	;'2'
   189  00100E  75                 	db	117	;'u'
   190  00100F  23                 	db	35
   191  001010  00                 	db	0
   192  001011                     STR_4:
   193  001011  24                 	db	36
   194  001012  52                 	db	82	;'R'
   195  001013  45                 	db	69	;'E'
   196  001014  53                 	db	83	;'S'
   197  001015  25                 	db	37
   198  001016  30                 	db	48	;'0'
   199  001017  33                 	db	51	;'3'
   200  001018  75                 	db	117	;'u'
   201  001019  25                 	db	37
   202  00101A  30                 	db	48	;'0'
   203  00101B  32                 	db	50	;'2'
   204  00101C  75                 	db	117	;'u'
   205  00101D  23                 	db	35
   206  00101E  00                 	db	0
   207  00101F                     STR_3:
   208  00101F  24                 	db	36
   209  001020  46                 	db	70	;'F'
   210  001021  45                 	db	69	;'E'
   211  001022  45                 	db	69	;'E'
   212  001023  25                 	db	37
   213  001024  30                 	db	48	;'0'
   214  001025  33                 	db	51	;'3'
   215  001026  75                 	db	117	;'u'
   216  001027  25                 	db	37
   217  001028  30                 	db	48	;'0'
   218  001029  33                 	db	51	;'3'
   219  00102A  75                 	db	117	;'u'
   220  00102B  23                 	db	35
   221  00102C  00                 	db	0
   222  00102D                     STR_1:
   223  00102D  24                 	db	36
   224  00102E  45                 	db	69	;'E'
   225  00102F  4D                 	db	77	;'M'
   226  001030  50                 	db	80	;'P'
   227  001031  25                 	db	37
   228  001032  30                 	db	48	;'0'
   229  001033  32                 	db	50	;'2'
   230  001034  75                 	db	117	;'u'
   231  001035  23                 	db	35
   232  001036  00                 	db	0
   233  001037  00                 	db	0	; dummy byte at the end
   234  0000                     
   235                           ; #config settings
   236                           
   237                           	psect	cinit
   238  002A2E                     __pcinit:
   239                           	callstack 0
   240  002A2E                     start_initialization:
   241                           	callstack 0
   242  002A2E                     __initialization:
   243                           	callstack 0
   244                           
   245                           ; Initialize objects allocated to BANK1 (18 bytes)
   246                           ; load TBLPTR registers with __pidataBANK1
   247  002A2E  0E86               	movlw	low __pidataBANK1
   248  002A30  6EF6               	movwf	tblptrl,c
   249  002A32  0E31               	movlw	high __pidataBANK1
   250  002A34  6EF7               	movwf	tblptrh,c
   251  002A36  0E00               	movlw	low (__pidataBANK1 shr (0+16))
   252  002A38  6EF8               	movwf	tblptru,c
   253  002A3A  EE01  F0EC         	lfsr	0,__pdataBANK1
   254  002A3E  EE10 F012          	lfsr	1,18
   255  002A42                     copy_data0:
   256  002A42  0009               	tblrd		*+
   257  002A44  CFF5 FFEE          	movff	tablat,postinc0
   258  002A48  50E5               	movf	postdec1,w,c
   259  002A4A  50E1               	movf	fsr1l,w,c
   260  002A4C  E1FA               	bnz	copy_data0
   261                           
   262                           ; Initialize objects allocated to BANK0 (8 bytes)
   263                           ; load TBLPTR registers with __pidataBANK0
   264  002A4E  0E98               	movlw	low __pidataBANK0
   265  002A50  6EF6               	movwf	tblptrl,c
   266  002A52  0E31               	movlw	high __pidataBANK0
   267  002A54  6EF7               	movwf	tblptrh,c
   268  002A56  0E00               	movlw	low (__pidataBANK0 shr (0+16))
   269  002A58  6EF8               	movwf	tblptru,c
   270  002A5A  EE00  F0F8         	lfsr	0,__pdataBANK0
   271  002A5E  EE10 F008          	lfsr	1,8
   272  002A62                     copy_data1:
   273  002A62  0009               	tblrd		*+
   274  002A64  CFF5 FFEE          	movff	tablat,postinc0
   275  002A68  50E5               	movf	postdec1,w,c
   276  002A6A  50E1               	movf	fsr1l,w,c
   277  002A6C  E1FA               	bnz	copy_data1
   278                           
   279                           ; Clear objects allocated to BIGRAM (1024 bytes)
   280  002A6E  EE02  F0E6         	lfsr	0,__pbssBIGRAM
   281  002A72  EE14 F000          	lfsr	1,1024
   282  002A76                     clear_0:
   283  002A76  6AEE               	clrf	postinc0,c
   284  002A78  50E5               	movf	postdec1,w,c
   285  002A7A  50E1               	movf	fsr1l,w,c
   286  002A7C  E1FC               	bnz	clear_0
   287  002A7E  50E2               	movf	fsr1h,w,c
   288  002A80  E1FA               	bnz	clear_0
   289                           
   290                           ; Clear objects allocated to BANK2 (208 bytes)
   291  002A82  EE02  F000         	lfsr	0,__pbssBANK2
   292  002A86  0ED0               	movlw	208
   293  002A88                     clear_1:
   294  002A88  6AEE               	clrf	postinc0,c
   295  002A8A  06E8               	decf	wreg,f,c
   296  002A8C  E1FD               	bnz	clear_1
   297                           
   298                           ; Clear objects allocated to BANK1 (236 bytes)
   299  002A8E  EE01  F000         	lfsr	0,__pbssBANK1
   300  002A92  0EEC               	movlw	236
   301  002A94                     clear_2:
   302  002A94  6AEE               	clrf	postinc0,c
   303  002A96  06E8               	decf	wreg,f,c
   304  002A98  E1FD               	bnz	clear_2
   305                           
   306                           ; Clear objects allocated to BANK0 (21 bytes)
   307  002A9A  EE00  F0E3         	lfsr	0,__pbssBANK0
   308  002A9E  0E15               	movlw	21
   309  002AA0                     clear_3:
   310  002AA0  6AEE               	clrf	postinc0,c
   311  002AA2  06E8               	decf	wreg,f,c
   312  002AA4  E1FD               	bnz	clear_3
   313                           
   314                           ; Clear objects allocated to COMRAM (23 bytes)
   315  002AA6  EE00  F031         	lfsr	0,__pbssCOMRAM
   316  002AAA  0E17               	movlw	23
   317  002AAC                     clear_4:
   318  002AAC  6AEE               	clrf	postinc0,c
   319  002AAE  06E8               	decf	wreg,f,c
   320  002AB0  E1FD               	bnz	clear_4
   321  002AB2                     end_of_initialization:
   322                           	callstack 0
   323  002AB2                     __end_of__initialization:
   324                           	callstack 0
   325  002AB2  9048               	bcf	int$flags,0,c	;clear compiler interrupt flag (level 1)
   326  002AB4  9248               	bcf	int$flags,1,c	;clear compiler interrupt flag (level 2)
   327  002AB6  0100               	movlb	0
   328  002AB8  EF6C  F00D         	goto	_main	;jump to C main() function
   329                           
   330                           	psect	bssCOMRAM
   331  000031                     __pbssCOMRAM:
   332                           	callstack 0
   333  000031                     _head:
   334                           	callstack 0
   335  000031                     	ds	6
   336  000037                     _width:
   337                           	callstack 0
   338  000037                     	ds	2
   339  000039                     _prec:
   340                           	callstack 0
   341  000039                     	ds	2
   342  00003B                     _flags:
   343                           	callstack 0
   344  00003B                     	ds	2
   345  00003D                     _total_money:
   346                           	callstack 0
   347  00003D                     	ds	2
   348  00003F                     _digit:
   349                           	callstack 0
   350  00003F                     	ds	1
   351  000040                     _selected_level:
   352                           	callstack 0
   353  000040                     	ds	1
   354  000041                     _display_mode:
   355                           	callstack 0
   356  000041                     	ds	1
   357  000042                     _prev_rb4:
   358                           	callstack 0
   359  000042                     	ds	1
   360  000043                     _c:
   361                           	callstack 0
   362  000043                     	ds	1
   363  000044                     _v:
   364                           	callstack 0
   365  000044                     	ds	1
   366  000045                     _pkt_valid:
   367                           	callstack 0
   368  000045                     	ds	1
   369  000046                     _pkt_bodysize:
   370                           	callstack 0
   371  000046                     	ds	1
   372  000047                     _pkt_state:
   373                           	callstack 0
   374  000047                     	ds	1
   375                           
   376                           	psect	bssBANK0
   377  0000E3                     __pbssBANK0:
   378                           	callstack 0
   379  0000E3                     _tail:
   380                           	callstack 0
   381  0000E3                     	ds	6
   382  0000E9                     _nout:
   383                           	callstack 0
   384  0000E9                     	ds	2
   385  0000EB                     _dummy:
   386                           	callstack 0
   387  0000EB                     	ds	2
   388  0000ED                     _response_msg_flag:
   389                           	callstack 0
   390  0000ED                     	ds	2
   391  0000EF                     _emp_res_count:
   392                           	callstack 0
   393  0000EF                     	ds	2
   394  0000F1                     _sim_count:
   395                           	callstack 0
   396  0000F1                     	ds	2
   397  0000F3                     _timer_adc:
   398                           	callstack 0
   399  0000F3                     	ds	1
   400  0000F4                     _timer_previous:
   401                           	callstack 0
   402  0000F4                     	ds	1
   403  0000F5                     _timer_reach_flag:
   404                           	callstack 0
   405  0000F5                     	ds	1
   406  0000F6                     _msg_last_char:
   407                           	callstack 0
   408  0000F6                     	ds	1
   409  0000F7                     _pic_msg_count:
   410                           	callstack 0
   411  0000F7                     	ds	1
   412                           
   413                           	psect	dataBANK0
   414  0000F8                     __pdataBANK0:
   415                           	callstack 0
   416  0000F8                     try_park@F4992:
   417                           	callstack 0
   418  0000F8                     	ds	4
   419  0000FC                     _seven_seg_value:
   420                           	callstack 0
   421  0000FC                     	ds	2
   422  0000FE                     _empty_space:
   423                           	callstack 0
   424  0000FE                     	ds	2
   425                           
   426                           	psect	bssBANK1
   427  000100                     __pbssBANK1:
   428                           	callstack 0
   429  000100                     _queue:
   430                           	callstack 0
   431  000100                     	ds	32
   432  000120                     _sim_msg_array:
   433                           	callstack 0
   434  000120                     	ds	12
   435  00012C                     _reserved_slots:
   436                           	callstack 0
   437  00012C                     	ds	80
   438  00017C                     _park_slots:
   439                           	callstack 0
   440  00017C                     	ds	80
   441  0001CC                     _dbuf:
   442                           	callstack 0
   443  0001CC                     	ds	32
   444                           
   445                           	psect	dataBANK1
   446  0001EC                     __pdataBANK1:
   447                           	callstack 0
   448  0001EC                     _digit_map:
   449                           	callstack 0
   450  0001EC                     	ds	10
   451  0001F6                     _tens_power:
   452                           	callstack 0
   453  0001F6                     	ds	8
   454                           
   455                           	psect	bssBANK2
   456  000200                     __pbssBANK2:
   457                           	callstack 0
   458  000200                     _pkt_body:
   459                           	callstack 0
   460  000200                     	ds	128
   461  000280                     _park_fee_counter:
   462                           	callstack 0
   463  000280                     	ds	80
   464                           
   465                           	psect	bssBIGRAM
   466  0002E6                     __pbssBIGRAM:
   467                           	callstack 0
   468  0002E6                     _outbuf:
   469                           	callstack 0
   470  0002E6                     	ds	512
   471  0004E6                     _inbuf:
   472                           	callstack 0
   473  0004E6                     	ds	512
   474                           
   475                           	psect	cstackBANK2
   476  0002D0                     __pcstackBANK2:
   477                           	callstack 0
   478  0002D0                     handle_exit@ready_car_id:
   479                           	callstack 0
   480                           
   481                           ; 2 bytes @ 0x0
   482  0002D0                     	ds	2
   483  0002D2                     handle_exit@exit_fee:
   484                           	callstack 0
   485                           
   486                           ; 2 bytes @ 0x2
   487  0002D2                     	ds	2
   488  0002D4                     handle_exit@i:
   489                           	callstack 0
   490                           
   491                           ; 1 bytes @ 0x4
   492  0002D4                     	ds	1
   493  0002D5                     handle_exit@j:
   494                           	callstack 0
   495                           
   496                           ; 1 bytes @ 0x5
   497  0002D5                     	ds	1
   498  0002D6                     parse_sim_messages@spot:
   499                           	callstack 0
   500                           
   501                           ; 2 bytes @ 0x6
   502  0002D6                     	ds	2
   503  0002D8                     parse_sim_messages@level:
   504                           	callstack 0
   505                           
   506                           ; 1 bytes @ 0x8
   507  0002D8                     	ds	1
   508  0002D9                     parse_sim_messages@car_id:
   509                           	callstack 0
   510                           
   511                           ; 2 bytes @ 0x9
   512  0002D9                     	ds	2
   513  0002DB                     ??_main:
   514                           
   515                           ; 1 bytes @ 0xB
   516  0002DB                     	ds	6
   517  0002E1                     main@result:
   518                           	callstack 0
   519                           
   520                           ; 2 bytes @ 0x11
   521  0002E1                     	ds	2
   522  0002E3                     main@i:
   523                           	callstack 0
   524                           
   525                           ; 1 bytes @ 0x13
   526  0002E3                     	ds	1
   527  0002E4                     main@i_724:
   528                           	callstack 0
   529                           
   530                           ; 1 bytes @ 0x14
   531  0002E4                     	ds	1
   532  0002E5                     main@j:
   533                           	callstack 0
   534                           
   535                           ; 1 bytes @ 0x15
   536  0002E5                     	ds	1
   537                           
   538                           	psect	cstackBANK0
   539  000060                     __pcstackBANK0:
   540                           	callstack 0
   541  000060                     pad@i:
   542                           	callstack 0
   543                           
   544                           ; 2 bytes @ 0x0
   545  000060                     	ds	2
   546  000062                     pad@w:
   547                           	callstack 0
   548                           
   549                           ; 2 bytes @ 0x2
   550  000062                     	ds	2
   551  000064                     ?_utoa:
   552                           	callstack 0
   553  000064                     utoa@fp:
   554                           	callstack 0
   555                           
   556                           ; 2 bytes @ 0x4
   557  000064                     	ds	2
   558  000066                     utoa@d:
   559                           	callstack 0
   560                           
   561                           ; 8 bytes @ 0x6
   562  000066                     	ds	8
   563  00006E                     ??_utoa:
   564                           
   565                           ; 1 bytes @ 0xE
   566  00006E                     	ds	8
   567  000076                     utoa@p:
   568                           	callstack 0
   569                           
   570                           ; 2 bytes @ 0x16
   571  000076                     	ds	2
   572  000078                     utoa@w:
   573                           	callstack 0
   574                           
   575                           ; 2 bytes @ 0x18
   576  000078                     	ds	2
   577  00007A                     utoa@n:
   578                           	callstack 0
   579                           
   580                           ; 8 bytes @ 0x1A
   581  00007A                     	ds	8
   582  000082                     utoa@i:
   583                           	callstack 0
   584                           
   585                           ; 2 bytes @ 0x22
   586  000082                     	ds	2
   587  000084                     ?_vfpfcnvrt:
   588                           	callstack 0
   589  000084                     vfpfcnvrt@fp:
   590                           	callstack 0
   591                           
   592                           ; 2 bytes @ 0x24
   593  000084                     	ds	2
   594  000086                     vfpfcnvrt@fmt:
   595                           	callstack 0
   596                           
   597                           ; 2 bytes @ 0x26
   598  000086                     	ds	2
   599  000088                     vfpfcnvrt@ap:
   600                           	callstack 0
   601                           
   602                           ; 2 bytes @ 0x28
   603  000088                     	ds	2
   604  00008A                     ??_vfpfcnvrt:
   605                           
   606                           ; 1 bytes @ 0x2A
   607  00008A                     	ds	4
   608  00008E                     vfpfcnvrt@llu:
   609                           	callstack 0
   610                           
   611                           ; 8 bytes @ 0x2E
   612  00008E                     	ds	8
   613  000096                     vfpfcnvrt@c:
   614                           	callstack 0
   615                           
   616                           ; 1 bytes @ 0x36
   617  000096                     	ds	1
   618  000097                     vfpfcnvrt@done:
   619                           	callstack 0
   620                           
   621                           ; 2 bytes @ 0x37
   622  000097                     	ds	2
   623  000099                     _vfpfcnvrt$1260:
   624                           	callstack 0
   625                           
   626                           ; 2 bytes @ 0x39
   627  000099                     	ds	2
   628  00009B                     ?_vfprintf:
   629                           	callstack 0
   630  00009B                     vfprintf@fp:
   631                           	callstack 0
   632                           
   633                           ; 2 bytes @ 0x3B
   634  00009B                     	ds	2
   635  00009D                     vfprintf@fmt:
   636                           	callstack 0
   637                           
   638                           ; 2 bytes @ 0x3D
   639  00009D                     	ds	2
   640  00009F                     vfprintf@ap:
   641                           	callstack 0
   642                           
   643                           ; 2 bytes @ 0x3F
   644  00009F                     	ds	2
   645  0000A1                     vfprintf@cfmt:
   646                           	callstack 0
   647                           
   648                           ; 2 bytes @ 0x41
   649  0000A1                     	ds	2
   650  0000A3                     ?_sprintf:
   651                           	callstack 0
   652  0000A3                     sprintf@s:
   653                           	callstack 0
   654                           
   655                           ; 2 bytes @ 0x43
   656  0000A3                     	ds	2
   657  0000A5                     sprintf@fmt:
   658                           	callstack 0
   659                           
   660                           ; 2 bytes @ 0x45
   661  0000A5                     	ds	10
   662  0000AF                     sprintf@ap:
   663                           	callstack 0
   664                           
   665                           ; 2 bytes @ 0x4F
   666  0000AF                     	ds	2
   667  0000B1                     sprintf@f:
   668                           	callstack 0
   669                           
   670                           ; 6 bytes @ 0x51
   671  0000B1                     	ds	6
   672  0000B7                     ??_push_emp_rsp:
   673  0000B7                     push_park_rsp@spot:
   674                           	callstack 0
   675  0000B7                     push_park_fee_rsp@car_id:
   676                           	callstack 0
   677  0000B7                     push_sub_rsp@car_id:
   678                           	callstack 0
   679                           
   680                           ; 2 bytes @ 0x57
   681  0000B7                     	ds	1
   682  0000B8                     push_park_rsp@car_id:
   683                           	callstack 0
   684  0000B8                     push_emp_rsp@emp_response_buf:
   685                           	callstack 0
   686                           
   687                           ; 8 bytes @ 0x58
   688  0000B8                     	ds	1
   689  0000B9                     push_park_fee_rsp@fee:
   690                           	callstack 0
   691  0000B9                     push_sub_rsp@fee:
   692                           	callstack 0
   693                           
   694                           ; 2 bytes @ 0x59
   695  0000B9                     	ds	1
   696  0000BA                     ??_push_park_rsp:
   697                           
   698                           ; 1 bytes @ 0x5A
   699  0000BA                     	ds	1
   700  0000BB                     ??_push_park_fee_rsp:
   701  0000BB                     ??_push_sub_rsp:
   702  0000BB                     push_park_rsp@response_buf:
   703                           	callstack 0
   704                           
   705                           ; 12 bytes @ 0x5B
   706  0000BB                     	ds	1
   707  0000BC                     push_sub_rsp@response_buf:
   708                           	callstack 0
   709  0000BC                     push_park_fee_rsp@response_buf:
   710                           	callstack 0
   711                           
   712                           ; 12 bytes @ 0x5C
   713  0000BC                     	ds	11
   714  0000C7                     push_park_rsp@level:
   715                           	callstack 0
   716  0000C7                     push_sub_rsp@i:
   717                           	callstack 0
   718                           
   719                           ; 1 bytes @ 0x67
   720  0000C7                     	ds	1
   721  0000C8                     push_park_rsp@i:
   722                           	callstack 0
   723  0000C8                     push_park_fee_rsp@i:
   724                           	callstack 0
   725  0000C8                     handle_subscr@car_id:
   726                           	callstack 0
   727                           
   728                           ; 2 bytes @ 0x68
   729  0000C8                     	ds	1
   730  0000C9                     try_park@car_id:
   731                           	callstack 0
   732                           
   733                           ; 2 bytes @ 0x69
   734  0000C9                     	ds	1
   735  0000CA                     handle_subscr@level:
   736                           	callstack 0
   737                           
   738                           ; 2 bytes @ 0x6A
   739  0000CA                     	ds	1
   740  0000CB                     ??_try_park:
   741                           
   742                           ; 1 bytes @ 0x6B
   743  0000CB                     	ds	1
   744  0000CC                     handle_subscr@spot:
   745                           	callstack 0
   746                           
   747                           ; 2 bytes @ 0x6C
   748  0000CC                     	ds	2
   749  0000CE                     ??_handle_subscr:
   750                           
   751                           ; 1 bytes @ 0x6E
   752  0000CE                     	ds	3
   753  0000D1                     try_park@spot:
   754                           	callstack 0
   755                           
   756                           ; 4 bytes @ 0x71
   757  0000D1                     	ds	1
   758  0000D2                     handle_subscr@sub_fee:
   759                           	callstack 0
   760                           
   761                           ; 2 bytes @ 0x72
   762  0000D2                     	ds	3
   763  0000D5                     try_park@i:
   764                           	callstack 0
   765                           
   766                           ; 1 bytes @ 0x75
   767  0000D5                     	ds	1
   768  0000D6                     try_park@j:
   769                           	callstack 0
   770                           
   771                           ; 1 bytes @ 0x76
   772  0000D6                     	ds	1
   773  0000D7                     handle_park@car_id:
   774                           	callstack 0
   775                           
   776                           ; 2 bytes @ 0x77
   777  0000D7                     	ds	2
   778  0000D9                     handle_exit@car_id:
   779                           	callstack 0
   780                           
   781                           ; 2 bytes @ 0x79
   782  0000D9                     	ds	2
   783  0000DB                     ??_handle_exit:
   784                           
   785                           ; 1 bytes @ 0x7B
   786  0000DB                     	ds	6
   787  0000E1                     ??_parse_sim_messages:
   788                           
   789                           ; 1 bytes @ 0x81
   790  0000E1                     	ds	2
   791                           
   792                           	psect	cstackCOMRAM
   793  000001                     __pcstackCOMRAM:
   794                           	callstack 0
   795  000001                     ??_update_display:
   796  000001                     ?___lwdiv:
   797                           	callstack 0
   798  000001                     buf_push_inbuf@v:
   799                           	callstack 0
   800  000001                     ___lwdiv@dividend:
   801                           	callstack 0
   802                           
   803                           ; 2 bytes @ 0x0
   804  000001                     	ds	2
   805  000003                     ___lwdiv@divisor:
   806                           	callstack 0
   807                           
   808                           ; 2 bytes @ 0x2
   809  000003                     	ds	2
   810  000005                     buf_isempty@buf:
   811                           	callstack 0
   812  000005                     ___lwdiv@quotient:
   813                           	callstack 0
   814                           
   815                           ; 2 bytes @ 0x4
   816  000005                     	ds	1
   817  000006                     ?_buf_pop:
   818                           	callstack 0
   819  000006                     buf_pop@size:
   820                           	callstack 0
   821                           
   822                           ; 2 bytes @ 0x5
   823  000006                     	ds	1
   824  000007                     update_display@empty_count:
   825                           	callstack 0
   826  000007                     ___lwdiv@counter:
   827                           	callstack 0
   828                           
   829                           ; 1 bytes @ 0x6
   830  000007                     	ds	1
   831  000008                     ??_buf_pop:
   832  000008                     ?___lwmod:
   833                           	callstack 0
   834  000008                     update_display@j:
   835                           	callstack 0
   836  000008                     ___lwmod@dividend:
   837                           	callstack 0
   838                           
   839                           ; 2 bytes @ 0x7
   840  000008                     	ds	2
   841  00000A                     ___lwmod@divisor:
   842                           	callstack 0
   843                           
   844                           ; 2 bytes @ 0x9
   845  00000A                     	ds	1
   846  00000B                     buf_pop@v:
   847                           	callstack 0
   848                           
   849                           ; 2 bytes @ 0xA
   850  00000B                     	ds	1
   851  00000C                     ___lwmod@counter:
   852                           	callstack 0
   853                           
   854                           ; 1 bytes @ 0xB
   855  00000C                     	ds	1
   856  00000D                     buf_pop@buf:
   857                           	callstack 0
   858                           
   859                           ; 1 bytes @ 0xC
   860  00000D                     	ds	1
   861  00000E                     ??_highPriorityISR:
   862                           
   863                           ; 1 bytes @ 0xD
   864  00000E                     	ds	8
   865  000016                     highPriorityISR@current:
   866                           	callstack 0
   867                           
   868                           ; 1 bytes @ 0x15
   869  000016                     	ds	1
   870  000017                     highPriorityISR@rb4:
   871                           	callstack 0
   872                           
   873                           ; 1 bytes @ 0x16
   874  000017                     	ds	1
   875  000018                     ??_init_vars:
   876  000018                     ?_strlen:
   877                           	callstack 0
   878  000018                     ?_isdigit:
   879                           	callstack 0
   880  000018                     ?_isspace:
   881                           	callstack 0
   882  000018                     ?___wmul:
   883                           	callstack 0
   884  000018                     ?___lodiv:
   885                           	callstack 0
   886  000018                     ?___lomod:
   887                           	callstack 0
   888  000018                     buf_push@v:
   889                           	callstack 0
   890  000018                     ___wmul@multiplier:
   891                           	callstack 0
   892  000018                     isdigit@c:
   893                           	callstack 0
   894  000018                     isspace@c:
   895                           	callstack 0
   896  000018                     fputc@c:
   897                           	callstack 0
   898  000018                     strlen@s:
   899                           	callstack 0
   900  000018                     ___lodiv@dividend:
   901                           	callstack 0
   902  000018                     ___lomod@dividend:
   903                           	callstack 0
   904                           
   905                           ; 8 bytes @ 0x17
   906  000018                     	ds	2
   907  00001A                     ??_isdigit:
   908  00001A                     ??_isspace:
   909  00001A                     buf_push@buf:
   910                           	callstack 0
   911  00001A                     ___wmul@multiplicand:
   912                           	callstack 0
   913  00001A                     fputc@fp:
   914                           	callstack 0
   915  00001A                     strlen@a:
   916                           	callstack 0
   917                           
   918                           ; 2 bytes @ 0x19
   919  00001A                     	ds	1
   920  00001B                     buf_push@size:
   921                           	callstack 0
   922                           
   923                           ; 2 bytes @ 0x1A
   924  00001B                     	ds	1
   925  00001C                     ??_fputc:
   926  00001C                     init_vars@i:
   927                           	callstack 0
   928  00001C                     ___wmul@product:
   929                           	callstack 0
   930                           
   931                           ; 2 bytes @ 0x1B
   932  00001C                     	ds	1
   933  00001D                     ??_buf_push:
   934  00001D                     init_vars@j:
   935                           	callstack 0
   936                           
   937                           ; 1 bytes @ 0x1C
   938  00001D                     	ds	1
   939  00001E                     _isspace$1297:
   940                           	callstack 0
   941                           
   942                           ; 1 bytes @ 0x1D
   943  00001E                     	ds	1
   944  00001F                     ?_atoi:
   945                           	callstack 0
   946  00001F                     atoi@s:
   947                           	callstack 0
   948                           
   949                           ; 2 bytes @ 0x1E
   950  00001F                     	ds	1
   951  000020                     ___lodiv@divisor:
   952                           	callstack 0
   953  000020                     ___lomod@divisor:
   954                           	callstack 0
   955                           
   956                           ; 8 bytes @ 0x1F
   957  000020                     	ds	1
   958  000021                     ??_atoi:
   959  000021                     ?_ctoa:
   960                           	callstack 0
   961  000021                     ctoa@fp:
   962                           	callstack 0
   963  000021                     fputs@s:
   964                           	callstack 0
   965                           
   966                           ; 2 bytes @ 0x20
   967  000021                     	ds	2
   968  000023                     ctoa@c:
   969                           	callstack 0
   970  000023                     fputs@fp:
   971                           	callstack 0
   972                           
   973                           ; 2 bytes @ 0x22
   974  000023                     	ds	1
   975  000024                     ??_ctoa:
   976                           
   977                           ; 1 bytes @ 0x23
   978  000024                     	ds	1
   979  000025                     fputs@c:
   980                           	callstack 0
   981  000025                     ctoa@l:
   982                           	callstack 0
   983  000025                     atoi@neg:
   984                           	callstack 0
   985                           
   986                           ; 2 bytes @ 0x24
   987  000025                     	ds	1
   988  000026                     fputs@i:
   989                           	callstack 0
   990                           
   991                           ; 2 bytes @ 0x25
   992  000026                     	ds	1
   993  000027                     ctoa@w:
   994                           	callstack 0
   995  000027                     _atoi$1279:
   996                           	callstack 0
   997                           
   998                           ; 2 bytes @ 0x26
   999  000027                     	ds	1
  1000  000028                     ?_pad:
  1001                           	callstack 0
  1002  000028                     ___lomod@counter:
  1003                           	callstack 0
  1004  000028                     pad@fp:
  1005                           	callstack 0
  1006  000028                     ___lodiv@quotient:
  1007                           	callstack 0
  1008                           
  1009                           ; 8 bytes @ 0x27
  1010  000028                     	ds	1
  1011  000029                     _atoi$1281:
  1012                           	callstack 0
  1013                           
  1014                           ; 2 bytes @ 0x28
  1015  000029                     	ds	1
  1016  00002A                     pad@buf:
  1017                           	callstack 0
  1018                           
  1019                           ; 2 bytes @ 0x29
  1020  00002A                     	ds	1
  1021  00002B                     _atoi$1280:
  1022                           	callstack 0
  1023                           
  1024                           ; 1 bytes @ 0x2A
  1025  00002B                     	ds	1
  1026  00002C                     pad@p:
  1027                           	callstack 0
  1028  00002C                     atoi@n:
  1029                           	callstack 0
  1030                           
  1031                           ; 2 bytes @ 0x2B
  1032  00002C                     	ds	2
  1033  00002E                     ??_pad:
  1034                           
  1035                           ; 1 bytes @ 0x2D
  1036  00002E                     	ds	2
  1037  000030                     ___lodiv@counter:
  1038                           	callstack 0
  1039                           
  1040                           ; 1 bytes @ 0x2F
  1041  000030                     	ds	1
  1042  000031                     
  1043                           ; 1 bytes @ 0x30
  1044 ;;
  1045 ;;Main: autosize = 0, tempsize = 6, incstack = 0, save=0
  1046 ;;
  1047 ;; *************** function _main *****************
  1048 ;; Defined at:
  1049 ;;		line 458 in file "main.c"
  1050 ;; Parameters:    Size  Location     Type
  1051 ;;		None
  1052 ;; Auto vars:     Size  Location     Type
  1053 ;;  j               1   21[BANK2 ] unsigned char 
  1054 ;;  i               1   20[BANK2 ] unsigned char 
  1055 ;;  i               1   19[BANK2 ] unsigned char 
  1056 ;;  result          2   17[BANK2 ] unsigned int 
  1057 ;; Return value:  Size  Location     Type
  1058 ;;                  1    wreg      void 
  1059 ;; Registers used:
  1060 ;;		wreg, fsr1l, fsr1h, fsr2l, fsr2h, status,2, status,0, tblptrl, tblptrh, tblptru, prodl, prodh, cstack
  1061 ;; Tracked objects:
  1062 ;;		On entry : 0/0
  1063 ;;		On exit  : 0/0
  1064 ;;		Unchanged: 0/0
  1065 ;; Data sizes:     COMRAM   BANK0   BANK1   BANK2   BANK3   BANK4   BANK5   BANK6   BANK7   BANK8   BANK9  BANK10  BANK1
      +1  BANK12  BANK13  BANK14  BANK15
  1066 ;;      Params:         0       0       0       0       0       0       0       0       0       0       0       0       
      +0       0       0       0       0
  1067 ;;      Locals:         0       0       0       5       0       0       0       0       0       0       0       0       
      +0       0       0       0       0
  1068 ;;      Temps:          0       0       0       6       0       0       0       0       0       0       0       0       
      +0       0       0       0       0
  1069 ;;      Totals:         0       0       0      11       0       0       0       0       0       0       0       0       
      +0       0       0       0       0
  1070 ;;Total ram usage:       11 bytes
  1071 ;; Hardware stack levels required when called:   16
  1072 ;; This function calls:
  1073 ;;		_buf_isempty
  1074 ;;		_init_adc
  1075 ;;		_init_int
  1076 ;;		_init_vars
  1077 ;;		_packet_task
  1078 ;;		_parse_sim_messages
  1079 ;;		_push_emp_rsp
  1080 ;; This function is called by:
  1081 ;;		Startup code after reset
  1082 ;; This function uses a non-reentrant model
  1083 ;;
  1084                           
  1085                           	psect	text0
  1086  001AD8                     __ptext0:
  1087                           	callstack 0
  1088  001AD8                     _main:
  1089                           	callstack 15
  1090  001AD8  ECAA  F018         	call	_init_adc	;wreg free
  1091  001ADC  EC27  F018         	call	_init_int	;wreg free
  1092  001AE0  ECB2  F014         	call	_init_vars	;wreg free
  1093  001AE4                     l3899:
  1094  001AE4  0E23               	movlw	35
  1095  001AE6  0100               	movlb	0	; () banked
  1096  001AE8  19F6               	xorwf	_msg_last_char& (0+255),w,b
  1097  001AEA  A4D8               	btfss	status,2,c
  1098  001AEC  EF7A  F00D         	goto	u3821
  1099  001AF0  EF7C  F00D         	goto	u3820
  1100  001AF4                     u3821:
  1101  001AF4  EF9C  F00D         	goto	l3921
  1102  001AF8                     u3820:
  1103  001AF8                     
  1104                           ; BSR set to: 0
  1105  001AF8  ECA2  F017         	call	_packet_task	;wreg free
  1106  001AFC  0E00               	movlw	0
  1107  001AFE  0100               	movlb	0	; () banked
  1108  001B00  6FF6               	movwf	_msg_last_char& (0+255),b
  1109  001B02                     
  1110                           ; BSR set to: 0
  1111  001B02  EC0B  F00A         	call	_parse_sim_messages	;wreg free
  1112  001B06  0E00               	movlw	0
  1113  001B08  0102               	movlb	2	; () banked
  1114  001B0A  6FE3               	movwf	main@i& (0+255),b
  1115  001B0C                     l3913:
  1116                           
  1117                           ; BSR set to: 2
  1118  001B0C  0E20               	movlw	low _sim_msg_array
  1119  001B0E  25E3               	addwf	main@i& (0+255),w,b
  1120  001B10  6ED9               	movwf	fsr2l,c
  1121  001B12  6ADA               	clrf	fsr2h,c
  1122  001B14  0E01               	movlw	high _sim_msg_array
  1123  001B16  22DA               	addwfc	fsr2h,f,c
  1124  001B18  0E00               	movlw	0
  1125  001B1A  6EDF               	movwf	indf2,c
  1126  001B1C                     
  1127                           ; BSR set to: 2
  1128  001B1C  2BE3               	incf	main@i& (0+255),f,b
  1129  001B1E                     
  1130                           ; BSR set to: 2
  1131  001B1E  0E0B               	movlw	11
  1132  001B20  65E3               	cpfsgt	main@i& (0+255),b
  1133  001B22  EF95  F00D         	goto	u3831
  1134  001B26  EF97  F00D         	goto	u3830
  1135  001B2A                     u3831:
  1136  001B2A  EF86  F00D         	goto	l3913
  1137  001B2E                     u3830:
  1138  001B2E                     
  1139                           ; BSR set to: 2
  1140  001B2E  0E00               	movlw	0
  1141  001B30  0100               	movlb	0	; () banked
  1142  001B32  6FF2               	movwf	(_sim_count+1)& (0+255),b
  1143  001B34  0E00               	movlw	0
  1144  001B36  6FF1               	movwf	_sim_count& (0+255),b
  1145  001B38                     l3921:
  1146                           
  1147                           ; BSR set to: 0
  1148  001B38  0E14               	movlw	20
  1149  001B3A  19F7               	xorwf	_pic_msg_count& (0+255),w,b
  1150  001B3C  A4D8               	btfss	status,2,c
  1151  001B3E  EFA3  F00D         	goto	u3841
  1152  001B42  EFA5  F00D         	goto	u3840
  1153  001B46                     u3841:
  1154  001B46  EFBC  F00D         	goto	l3933
  1155  001B4A                     u3840:
  1156  001B4A                     
  1157                           ; BSR set to: 0
  1158  001B4A  0E00               	movlw	0
  1159  001B4C  6FF7               	movwf	_pic_msg_count& (0+255),b
  1160  001B4E  0E00               	movlw	0
  1161  001B50  6FF0               	movwf	(_emp_res_count+1)& (0+255),b
  1162  001B52  0E00               	movlw	0
  1163  001B54  6FEF               	movwf	_emp_res_count& (0+255),b
  1164  001B56                     
  1165                           ; BSR set to: 0
  1166  001B56  0E01               	movlw	1
  1167  001B58  ECE8  F017         	call	_buf_isempty
  1168  001B5C  0900               	iorlw	0
  1169  001B5E  B4D8               	btfsc	status,2,c
  1170  001B60  EFB4  F00D         	goto	u3851
  1171  001B64  EFB6  F00D         	goto	u3850
  1172  001B68                     u3851:
  1173  001B68  EFB8  F00D         	goto	l3929
  1174  001B6C                     u3850:
  1175  001B6C  EC55  F016         	call	_push_emp_rsp	;wreg free
  1176  001B70                     l3929:
  1177  001B70  8AAC               	bsf	172,5,c	;volatile
  1178  001B72  0E00               	movlw	0
  1179  001B74  0100               	movlb	0	; () banked
  1180  001B76  6FF5               	movwf	_timer_reach_flag& (0+255),b
  1181  001B78                     l3933:
  1182                           
  1183                           ; BSR set to: 0
  1184  001B78  0E32               	movlw	50
  1185  001B7A  19F4               	xorwf	_timer_previous& (0+255),w,b
  1186  001B7C  A4D8               	btfss	status,2,c
  1187  001B7E  EFC3  F00D         	goto	u3861
  1188  001B82  EFC5  F00D         	goto	u3860
  1189  001B86                     u3861:
  1190  001B86  EF18  F00E         	goto	l3961
  1191  001B8A                     u3860:
  1192  001B8A                     
  1193                           ; BSR set to: 0
  1194  001B8A  0E00               	movlw	0
  1195  001B8C  0102               	movlb	2	; () banked
  1196  001B8E  6FE4               	movwf	main@i_724& (0+255),b
  1197  001B90                     l3941:
  1198                           
  1199                           ; BSR set to: 2
  1200  001B90  0E00               	movlw	0
  1201  001B92  6FE5               	movwf	main@j& (0+255),b
  1202  001B94                     l3947:
  1203                           
  1204                           ; BSR set to: 2
  1205  001B94  51E5               	movf	main@j& (0+255),w,b
  1206  001B96  0D02               	mullw	2
  1207  001B98  CFF3 F2DB          	movff	prodl,??_main
  1208  001B9C  CFF4 F2DC          	movff	prodh,??_main+1
  1209  001BA0  51E4               	movf	main@i_724& (0+255),w,b
  1210  001BA2  0D14               	mullw	20
  1211  001BA4  0E7C               	movlw	low _park_slots
  1212  001BA6  6FDD               	movwf	(??_main+2)& (0+255),b
  1213  001BA8  0E01               	movlw	high _park_slots
  1214  001BAA  6FDE               	movwf	(??_main+3)& (0+255),b
  1215  001BAC  50F3               	movf	243,w,c
  1216  001BAE  27DD               	addwf	(??_main+2)& (0+255),f,b
  1217  001BB0  50F4               	movf	244,w,c
  1218  001BB2  23DE               	addwfc	(??_main+3)& (0+255),f,b
  1219  001BB4  51DB               	movf	??_main& (0+255),w,b
  1220  001BB6  25DD               	addwf	(??_main+2)& (0+255),w,b
  1221  001BB8  6ED9               	movwf	fsr2l,c
  1222  001BBA  51DC               	movf	(??_main+1)& (0+255),w,b
  1223  001BBC  21DE               	addwfc	(??_main+3)& (0+255),w,b
  1224  001BBE  6EDA               	movwf	fsr2h,c
  1225  001BC0  28DE               	incf	postinc2,w,c
  1226  001BC2  E108               	bnz	u3870
  1227  001BC4  28DE               	incf	postinc2,w,c
  1228  001BC6  B4D8               	btfsc	status,2,c
  1229  001BC8  EFE8  F00D         	goto	u3871
  1230  001BCC  EFEA  F00D         	goto	u3870
  1231  001BD0                     u3871:
  1232  001BD0  EF03  F00E         	goto	l3951
  1233  001BD4                     u3870:
  1234  001BD4                     
  1235                           ; BSR set to: 2
  1236  001BD4  51E5               	movf	main@j& (0+255),w,b
  1237  001BD6  0D02               	mullw	2
  1238  001BD8  CFF3 F2DB          	movff	prodl,??_main
  1239  001BDC  CFF4 F2DC          	movff	prodh,??_main+1
  1240  001BE0  51E4               	movf	main@i_724& (0+255),w,b
  1241  001BE2  0D14               	mullw	20
  1242  001BE4  0E80               	movlw	low _park_fee_counter
  1243  001BE6  6FDD               	movwf	(??_main+2)& (0+255),b
  1244  001BE8  0E02               	movlw	high _park_fee_counter
  1245  001BEA  6FDE               	movwf	(??_main+3)& (0+255),b
  1246  001BEC  50F3               	movf	243,w,c
  1247  001BEE  27DD               	addwf	(??_main+2)& (0+255),f,b
  1248  001BF0  50F4               	movf	244,w,c
  1249  001BF2  23DE               	addwfc	(??_main+3)& (0+255),f,b
  1250  001BF4  51DB               	movf	??_main& (0+255),w,b
  1251  001BF6  25DD               	addwf	(??_main+2)& (0+255),w,b
  1252  001BF8  6ED9               	movwf	fsr2l,c
  1253  001BFA  51DC               	movf	(??_main+1)& (0+255),w,b
  1254  001BFC  21DE               	addwfc	(??_main+3)& (0+255),w,b
  1255  001BFE  6EDA               	movwf	fsr2h,c
  1256  001C00  2ADE               	incf	postinc2,f,c
  1257  001C02  0E00               	movlw	0
  1258  001C04  22DD               	addwfc	postdec2,f,c
  1259  001C06                     l3951:
  1260                           
  1261                           ; BSR set to: 2
  1262  001C06  2BE5               	incf	main@j& (0+255),f,b
  1263  001C08                     
  1264                           ; BSR set to: 2
  1265  001C08  0E09               	movlw	9
  1266  001C0A  65E5               	cpfsgt	main@j& (0+255),b
  1267  001C0C  EF0A  F00E         	goto	u3881
  1268  001C10  EF0C  F00E         	goto	u3880
  1269  001C14                     u3881:
  1270  001C14  EFCA  F00D         	goto	l3947
  1271  001C18                     u3880:
  1272  001C18                     
  1273                           ; BSR set to: 2
  1274  001C18  2BE4               	incf	main@i_724& (0+255),f,b
  1275  001C1A                     
  1276                           ; BSR set to: 2
  1277  001C1A  0E03               	movlw	3
  1278  001C1C  65E4               	cpfsgt	main@i_724& (0+255),b
  1279  001C1E  EF13  F00E         	goto	u3891
  1280  001C22  EF15  F00E         	goto	u3890
  1281  001C26                     u3891:
  1282  001C26  EFC8  F00D         	goto	l3941
  1283  001C2A                     u3890:
  1284  001C2A                     
  1285                           ; BSR set to: 2
  1286  001C2A  0E00               	movlw	0
  1287  001C2C  0100               	movlb	0	; () banked
  1288  001C2E  6FF4               	movwf	_timer_previous& (0+255),b
  1289  001C30                     l3961:
  1290                           
  1291                           ; BSR set to: 0
  1292  001C30  0E64               	movlw	100
  1293  001C32  19F3               	xorwf	_timer_adc& (0+255),w,b
  1294  001C34  A4D8               	btfss	status,2,c
  1295  001C36  EF1F  F00E         	goto	u3901
  1296  001C3A  EF21  F00E         	goto	u3900
  1297  001C3E                     u3901:
  1298  001C3E  EF72  F00D         	goto	l3899
  1299  001C42                     u3900:
  1300  001C42                     
  1301                           ; BSR set to: 0
  1302  001C42  82C2               	bsf	4034,1,c	;volatile
  1303  001C44                     l305:
  1304  001C44  B2C2               	btfsc	4034,1,c	;volatile
  1305  001C46  EF27  F00E         	goto	u3911
  1306  001C4A  EF29  F00E         	goto	u3910
  1307  001C4E                     u3911:
  1308  001C4E  EF22  F00E         	goto	l305
  1309  001C52                     u3910:
  1310  001C52  50C4               	movf	196,w,c	;volatile
  1311  001C54  0102               	movlb	2	; () banked
  1312  001C56  6FDC               	movwf	(??_main+1)& (0+255),b
  1313  001C58  6BDB               	clrf	??_main& (0+255),b
  1314  001C5A  50C3               	movf	195,w,c	;volatile
  1315  001C5C  25DB               	addwf	??_main& (0+255),w,b
  1316  001C5E  6FE1               	movwf	main@result& (0+255),b
  1317  001C60  0E00               	movlw	0
  1318  001C62  21DC               	addwfc	(??_main+1)& (0+255),w,b
  1319  001C64  6FE2               	movwf	(main@result+1)& (0+255),b
  1320  001C66  05E2               	decf	(main@result+1)& (0+255),w,b
  1321  001C68  B0D8               	btfsc	status,0,c
  1322  001C6A  EF39  F00E         	goto	u3921
  1323  001C6E  EF3B  F00E         	goto	u3920
  1324  001C72                     u3921:
  1325  001C72  EF3F  F00E         	goto	l3969
  1326  001C76                     u3920:
  1327  001C76                     
  1328                           ; BSR set to: 2
  1329  001C76  0E00               	movlw	0
  1330  001C78  6E40               	movwf	_selected_level^0,c
  1331  001C7A  EF5B  F00E         	goto	l309
  1332  001C7E                     l3969:
  1333                           
  1334                           ; BSR set to: 2
  1335  001C7E  0E02               	movlw	2
  1336  001C80  5DE2               	subwf	(main@result+1)& (0+255),w,b
  1337  001C82  B0D8               	btfsc	status,0,c
  1338  001C84  EF46  F00E         	goto	u3931
  1339  001C88  EF48  F00E         	goto	u3930
  1340  001C8C                     u3931:
  1341  001C8C  EF4C  F00E         	goto	l3973
  1342  001C90                     u3930:
  1343  001C90                     
  1344                           ; BSR set to: 2
  1345  001C90  0E01               	movlw	1
  1346  001C92  6E40               	movwf	_selected_level^0,c
  1347  001C94  EF5B  F00E         	goto	l309
  1348  001C98                     l3973:
  1349                           
  1350                           ; BSR set to: 2
  1351  001C98  0E03               	movlw	3
  1352  001C9A  5DE2               	subwf	(main@result+1)& (0+255),w,b
  1353  001C9C  B0D8               	btfsc	status,0,c
  1354  001C9E  EF53  F00E         	goto	u3941
  1355  001CA2  EF55  F00E         	goto	u3940
  1356  001CA6                     u3941:
  1357  001CA6  EF59  F00E         	goto	l3977
  1358  001CAA                     u3940:
  1359  001CAA                     
  1360                           ; BSR set to: 2
  1361  001CAA  0E02               	movlw	2
  1362  001CAC  6E40               	movwf	_selected_level^0,c
  1363  001CAE  EF5B  F00E         	goto	l309
  1364  001CB2                     l3977:
  1365                           
  1366                           ; BSR set to: 2
  1367  001CB2  0E03               	movlw	3
  1368  001CB4  6E40               	movwf	_selected_level^0,c
  1369  001CB6                     l309:
  1370                           
  1371                           ; BSR set to: 2
  1372  001CB6  0E00               	movlw	0
  1373  001CB8  0100               	movlb	0	; () banked
  1374  001CBA  6FF3               	movwf	_timer_adc& (0+255),b
  1375  001CBC  EF72  F00D         	goto	l3899
  1376  001CC0  EF07  F000         	goto	start
  1377  001CC4                     __end_of_main:
  1378                           	callstack 0
  1379                           
  1380 ;; *************** function _push_emp_rsp *****************
  1381 ;; Defined at:
  1382 ;;		line 116 in file "main.c"
  1383 ;; Parameters:    Size  Location     Type
  1384 ;;		None
  1385 ;; Auto vars:     Size  Location     Type
  1386 ;;  emp_response    8   88[BANK0 ] unsigned char [8]
  1387 ;; Return value:  Size  Location     Type
  1388 ;;                  1    wreg      void 
  1389 ;; Registers used:
  1390 ;;		wreg, fsr1l, fsr1h, fsr2l, fsr2h, status,2, status,0, tblptrl, tblptrh, tblptru, prodl, prodh, cstack
  1391 ;; Tracked objects:
  1392 ;;		On entry : 0/0
  1393 ;;		On exit  : 0/0
  1394 ;;		Unchanged: 0/0
  1395 ;; Data sizes:     COMRAM   BANK0   BANK1   BANK2   BANK3   BANK4   BANK5   BANK6   BANK7   BANK8   BANK9  BANK10  BANK1
      +1  BANK12  BANK13  BANK14  BANK15
  1396 ;;      Params:         0       0       0       0       0       0       0       0       0       0       0       0       
      +0       0       0       0       0
  1397 ;;      Locals:         0       8       0       0       0       0       0       0       0       0       0       0       
      +0       0       0       0       0
  1398 ;;      Temps:          0       1       0       0       0       0       0       0       0       0       0       0       
      +0       0       0       0       0
  1399 ;;      Totals:         0       9       0       0       0       0       0       0       0       0       0       0       
      +0       0       0       0       0
  1400 ;;Total ram usage:        9 bytes
  1401 ;; Hardware stack levels used:    1
  1402 ;; Hardware stack levels required when called:   11
  1403 ;; This function calls:
  1404 ;;		_buf_push
  1405 ;;		_sprintf
  1406 ;; This function is called by:
  1407 ;;		_main
  1408 ;; This function uses a non-reentrant model
  1409 ;;
  1410                           
  1411                           	psect	text1
  1412  002CAA                     __ptext1:
  1413                           	callstack 0
  1414  002CAA                     _push_emp_rsp:
  1415                           	callstack 19
  1416  002CAA                     
  1417                           ;main.c: 117:     INTCON2bits.RBIP = 1;;main.c: 118: 
  1418  002CAA  0EB8               	movlw	low push_emp_rsp@emp_response_buf
  1419  002CAC  0100               	movlb	0	; () banked
  1420  002CAE  6FA3               	movwf	sprintf@s& (0+255),b
  1421  002CB0  0E00               	movlw	high push_emp_rsp@emp_response_buf
  1422  002CB2  6FA4               	movwf	(sprintf@s+1)& (0+255),b
  1423  002CB4  0E2D               	movlw	low STR_1
  1424  002CB6  6FA5               	movwf	sprintf@fmt& (0+255),b
  1425  002CB8  0E10               	movlw	high STR_1
  1426  002CBA  6FA6               	movwf	(sprintf@fmt+1)& (0+255),b
  1427  002CBC  C0FE  F0A7         	movff	_empty_space,?_sprintf+4
  1428  002CC0  C0FF  F0A8         	movff	_empty_space+1,?_sprintf+5
  1429  002CC4  EC50  F017         	call	_sprintf	;wreg free
  1430                           
  1431                           ;main.c: 120:  PIE1bits.TX1IE = 0;
  1432  002CC8  EF7C  F016         	goto	l3731
  1433  002CCC                     l3727:
  1434                           
  1435                           ; BSR set to: 0
  1436                           ;main.c: 121:  PIE1bits.RC1IE = 1;
  1437  002CCC  0EB8               	movlw	low push_emp_rsp@emp_response_buf
  1438  002CCE  25EF               	addwf	_emp_res_count& (0+255),w,b
  1439  002CD0  6ED9               	movwf	fsr2l,c
  1440  002CD2  0E00               	movlw	high push_emp_rsp@emp_response_buf
  1441  002CD4  21F0               	addwfc	(_emp_res_count+1)& (0+255),w,b
  1442  002CD6  6EDA               	movwf	fsr2h,c
  1443  002CD8  50DF               	movf	indf2,w,c
  1444  002CDA  6FB7               	movwf	??_push_emp_rsp& (0+255),b
  1445  002CDC  51B7               	movf	??_push_emp_rsp& (0+255),w,b
  1446  002CDE  6E18               	movwf	buf_push@v^0,c
  1447  002CE0  6A19               	clrf	(buf_push@v+1)^0,c
  1448  002CE2  0E01               	movlw	1
  1449  002CE4  6E1A               	movwf	buf_push@buf^0,c
  1450  002CE6  0E02               	movlw	2
  1451  002CE8  6E1C               	movwf	(buf_push@size+1)^0,c
  1452  002CEA  0E00               	movlw	0
  1453  002CEC  6E1B               	movwf	buf_push@size^0,c
  1454  002CEE  EC1A  F012         	call	_buf_push	;wreg free
  1455  002CF2  0100               	movlb	0	; () banked
  1456  002CF4  4BEF               	infsnz	_emp_res_count& (0+255),f,b
  1457  002CF6  2BF0               	incf	(_emp_res_count+1)& (0+255),f,b
  1458  002CF8                     l3731:
  1459                           
  1460                           ;main.c: 120:  PIE1bits.TX1IE = 0;
  1461  002CF8  0100               	movlb	0	; () banked
  1462  002CFA  BFF0               	btfsc	(_emp_res_count+1)& (0+255),7,b
  1463  002CFC  EF89  F016         	goto	u3511
  1464  002D00  51F0               	movf	(_emp_res_count+1)& (0+255),w,b
  1465  002D02  E109               	bnz	u3510
  1466  002D04  0E07               	movlw	7
  1467  002D06  5DEF               	subwf	_emp_res_count& (0+255),w,b
  1468  002D08  A0D8               	btfss	status,0,c
  1469  002D0A  EF89  F016         	goto	u3511
  1470  002D0E  EF8B  F016         	goto	u3510
  1471  002D12                     u3511:
  1472  002D12  EF66  F016         	goto	l3727
  1473  002D16                     u3510:
  1474  002D16                     
  1475                           ; BSR set to: 0
  1476  002D16  0012               	return		;funcret
  1477  002D18                     __end_of_push_emp_rsp:
  1478                           	callstack 0
  1479                           
  1480 ;; *************** function _parse_sim_messages *****************
  1481 ;; Defined at:
  1482 ;;		line 392 in file "main.c"
  1483 ;; Parameters:    Size  Location     Type
  1484 ;;		None
  1485 ;; Auto vars:     Size  Location     Type
  1486 ;;  car_id          2    9[BANK2 ] int 
  1487 ;;  spot            2    6[BANK2 ] int 
  1488 ;;  level           1    8[BANK2 ] unsigned char 
  1489 ;; Return value:  Size  Location     Type
  1490 ;;                  1    wreg      void 
  1491 ;; Registers used:
  1492 ;;		wreg, fsr1l, fsr1h, fsr2l, fsr2h, status,2, status,0, tblptrl, tblptrh, tblptru, prodl, prodh, cstack
  1493 ;; Tracked objects:
  1494 ;;		On entry : 0/0
  1495 ;;		On exit  : 0/0
  1496 ;;		Unchanged: 0/0
  1497 ;; Data sizes:     COMRAM   BANK0   BANK1   BANK2   BANK3   BANK4   BANK5   BANK6   BANK7   BANK8   BANK9  BANK10  BANK1
      +1  BANK12  BANK13  BANK14  BANK15
  1498 ;;      Params:         0       0       0       0       0       0       0       0       0       0       0       0       
      +0       0       0       0       0
  1499 ;;      Locals:         0       0       0       5       0       0       0       0       0       0       0       0       
      +0       0       0       0       0
  1500 ;;      Temps:          0       2       0       0       0       0       0       0       0       0       0       0       
      +0       0       0       0       0
  1501 ;;      Totals:         0       2       0       5       0       0       0       0       0       0       0       0       
      +0       0       0       0       0
  1502 ;;Total ram usage:        7 bytes
  1503 ;; Hardware stack levels used:    1
  1504 ;; Hardware stack levels required when called:   15
  1505 ;; This function calls:
  1506 ;;		_handle_end
  1507 ;;		_handle_exit
  1508 ;;		_handle_go
  1509 ;;		_handle_park
  1510 ;;		_handle_subscr
  1511 ;; This function is called by:
  1512 ;;		_main
  1513 ;; This function uses a non-reentrant model
  1514 ;;
  1515                           
  1516                           	psect	text2
  1517  001416                     __ptext2:
  1518                           	callstack 0
  1519  001416                     _parse_sim_messages:
  1520                           	callstack 15
  1521  001416                     
  1522                           ;main.c: 394:             else if (result < 512) selected_level = 1;;main.c: 395:       
      +                                else if (result < 768) selected_level = 2;;main.c: 398:         }
  1523  001416  0E24               	movlw	36
  1524  001418  0101               	movlb	1	; () banked
  1525  00141A  1920               	xorwf	_sim_msg_array& (0+255),w,b
  1526  00141C  A4D8               	btfss	status,2,c
  1527  00141E  EF13  F00A         	goto	u3541
  1528  001422  EF15  F00A         	goto	u3540
  1529  001426                     u3541:
  1530  001426  EF3C  F00B         	goto	l272
  1531  00142A                     u3540:
  1532  00142A                     
  1533                           ; BSR set to: 1
  1534  00142A  0E1F               	movlw	low (_sim_msg_array+65535)
  1535  00142C  0100               	movlb	0	; () banked
  1536  00142E  25F1               	addwf	_sim_count& (0+255),w,b
  1537  001430  6ED9               	movwf	fsr2l,c
  1538  001432  0E01               	movlw	high (_sim_msg_array+65535)
  1539  001434  21F2               	addwfc	(_sim_count+1)& (0+255),w,b
  1540  001436  6EDA               	movwf	fsr2h,c
  1541  001438  0E23               	movlw	35
  1542  00143A  18DE               	xorwf	postinc2,w,c
  1543  00143C  B4D8               	btfsc	status,2,c
  1544  00143E  EF23  F00A         	goto	u3551
  1545  001442  EF25  F00A         	goto	u3550
  1546  001446                     u3551:
  1547  001446  EF29  F00A         	goto	l3787
  1548  00144A                     u3550:
  1549  00144A  EF3C  F00B         	goto	l272
  1550  00144E                     l271:
  1551                           
  1552                           ; BSR set to: 1
  1553                           ;main.c: 399:     }
  1554  00144E  EF3C  F00B         	goto	l272
  1555  001452                     l3787:
  1556                           
  1557                           ; BSR set to: 0
  1558                           ;main.c: 402: }
  1559  001452  0E47               	movlw	71
  1560  001454  0101               	movlb	1	; () banked
  1561  001456  1921               	xorwf	(_sim_msg_array+1)& (0+255),w,b
  1562  001458  A4D8               	btfss	status,2,c
  1563  00145A  EF31  F00A         	goto	u3561
  1564  00145E  EF33  F00A         	goto	u3560
  1565  001462                     u3561:
  1566  001462  EF40  F00A         	goto	l3793
  1567  001466                     u3560:
  1568  001466                     
  1569                           ; BSR set to: 1
  1570  001466  0E4F               	movlw	79
  1571  001468  1922               	xorwf	(_sim_msg_array+2)& (0+255),w,b
  1572  00146A  A4D8               	btfss	status,2,c
  1573  00146C  EF3A  F00A         	goto	u3571
  1574  001470  EF3C  F00A         	goto	u3570
  1575  001474                     u3571:
  1576  001474  EF40  F00A         	goto	l3793
  1577  001478                     u3570:
  1578  001478                     
  1579                           ; BSR set to: 1
  1580  001478  ECB7  F018         	call	_handle_go	;wreg free
  1581  00147C  EF3C  F00B         	goto	l272
  1582  001480                     l3793:
  1583                           
  1584                           ; BSR set to: 1
  1585  001480  0E45               	movlw	69
  1586  001482  1921               	xorwf	(_sim_msg_array+1)& (0+255),w,b
  1587  001484  A4D8               	btfss	status,2,c
  1588  001486  EF47  F00A         	goto	u3581
  1589  00148A  EF49  F00A         	goto	u3580
  1590  00148E                     u3581:
  1591  00148E  EF5F  F00A         	goto	l3801
  1592  001492                     u3580:
  1593  001492                     
  1594                           ; BSR set to: 1
  1595  001492  0E4E               	movlw	78
  1596  001494  1922               	xorwf	(_sim_msg_array+2)& (0+255),w,b
  1597  001496  A4D8               	btfss	status,2,c
  1598  001498  EF50  F00A         	goto	u3591
  1599  00149C  EF52  F00A         	goto	u3590
  1600  0014A0                     u3591:
  1601  0014A0  EF5F  F00A         	goto	l3801
  1602  0014A4                     u3590:
  1603  0014A4                     
  1604                           ; BSR set to: 1
  1605  0014A4  0E44               	movlw	68
  1606  0014A6  1923               	xorwf	(_sim_msg_array+3)& (0+255),w,b
  1607  0014A8  A4D8               	btfss	status,2,c
  1608  0014AA  EF59  F00A         	goto	u3601
  1609  0014AE  EF5B  F00A         	goto	u3600
  1610  0014B2                     u3601:
  1611  0014B2  EF5F  F00A         	goto	l3801
  1612  0014B6                     u3600:
  1613  0014B6                     
  1614                           ; BSR set to: 1
  1615  0014B6  EC60  F018         	call	_handle_end	;wreg free
  1616  0014BA  EF3C  F00B         	goto	l272
  1617  0014BE                     l3801:
  1618                           
  1619                           ; BSR set to: 1
  1620  0014BE  0E50               	movlw	80
  1621  0014C0  1921               	xorwf	(_sim_msg_array+1)& (0+255),w,b
  1622  0014C2  A4D8               	btfss	status,2,c
  1623  0014C4  EF66  F00A         	goto	u3611
  1624  0014C8  EF68  F00A         	goto	u3610
  1625  0014CC                     u3611:
  1626  0014CC  EF9E  F00A         	goto	l3811
  1627  0014D0                     u3610:
  1628  0014D0                     
  1629                           ; BSR set to: 1
  1630  0014D0  0E52               	movlw	82
  1631  0014D2  1922               	xorwf	(_sim_msg_array+2)& (0+255),w,b
  1632  0014D4  A4D8               	btfss	status,2,c
  1633  0014D6  EF6F  F00A         	goto	u3621
  1634  0014DA  EF71  F00A         	goto	u3620
  1635  0014DE                     u3621:
  1636  0014DE  EF9E  F00A         	goto	l3811
  1637  0014E2                     u3620:
  1638  0014E2                     
  1639                           ; BSR set to: 1
  1640  0014E2  0E4B               	movlw	75
  1641  0014E4  1923               	xorwf	(_sim_msg_array+3)& (0+255),w,b
  1642  0014E6  A4D8               	btfss	status,2,c
  1643  0014E8  EF78  F00A         	goto	u3631
  1644  0014EC  EF7A  F00A         	goto	u3630
  1645  0014F0                     u3631:
  1646  0014F0  EF9E  F00A         	goto	l3811
  1647  0014F4                     u3630:
  1648  0014F4                     
  1649                           ; BSR set to: 1
  1650  0014F4  5124               	movf	(_sim_msg_array+4)& (0+255),w,b
  1651  0014F6  0D64               	mullw	100
  1652  0014F8  CFF3 F0E1          	movff	prodl,??_parse_sim_messages
  1653  0014FC  CFF4 F0E2          	movff	prodh,??_parse_sim_messages+1
  1654  001500  5125               	movf	(_sim_msg_array+5)& (0+255),w,b
  1655  001502  0D0A               	mullw	10
  1656  001504  50F3               	movf	243,w,c
  1657  001506  0100               	movlb	0	; () banked
  1658  001508  27E1               	addwf	??_parse_sim_messages& (0+255),f,b
  1659  00150A  50F4               	movf	244,w,c
  1660  00150C  23E2               	addwfc	(??_parse_sim_messages+1)& (0+255),f,b
  1661  00150E  0101               	movlb	1	; () banked
  1662  001510  5126               	movf	(_sim_msg_array+6)& (0+255),w,b
  1663  001512  0100               	movlb	0	; () banked
  1664  001514  27E1               	addwf	??_parse_sim_messages& (0+255),f,b
  1665  001516  0E00               	movlw	0
  1666  001518  23E2               	addwfc	(??_parse_sim_messages+1)& (0+255),f,b
  1667  00151A  0E30               	movlw	48
  1668  00151C  25E1               	addwf	??_parse_sim_messages& (0+255),w,b
  1669  00151E  0102               	movlb	2	; () banked
  1670  001520  6FD9               	movwf	parse_sim_messages@car_id& (0+255),b
  1671  001522  0EEB               	movlw	235
  1672  001524  0100               	movlb	0	; () banked
  1673  001526  21E2               	addwfc	(??_parse_sim_messages+1)& (0+255),w,b
  1674  001528  0102               	movlb	2	; () banked
  1675  00152A  6FDA               	movwf	(parse_sim_messages@car_id+1)& (0+255),b
  1676  00152C                     
  1677                           ; BSR set to: 2
  1678  00152C  C2D9  F0D7         	movff	parse_sim_messages@car_id,handle_park@car_id
  1679  001530  C2DA  F0D8         	movff	parse_sim_messages@car_id+1,handle_park@car_id+1
  1680  001534  EC08  F018         	call	_handle_park	;wreg free
  1681  001538  EF3C  F00B         	goto	l272
  1682  00153C                     l3811:
  1683                           
  1684                           ; BSR set to: 1
  1685  00153C  0E45               	movlw	69
  1686  00153E  1921               	xorwf	(_sim_msg_array+1)& (0+255),w,b
  1687  001540  A4D8               	btfss	status,2,c
  1688  001542  EFA5  F00A         	goto	u3641
  1689  001546  EFA7  F00A         	goto	u3640
  1690  00154A                     u3641:
  1691  00154A  EFDD  F00A         	goto	l3821
  1692  00154E                     u3640:
  1693  00154E                     
  1694                           ; BSR set to: 1
  1695  00154E  0E58               	movlw	88
  1696  001550  1922               	xorwf	(_sim_msg_array+2)& (0+255),w,b
  1697  001552  A4D8               	btfss	status,2,c
  1698  001554  EFAE  F00A         	goto	u3651
  1699  001558  EFB0  F00A         	goto	u3650
  1700  00155C                     u3651:
  1701  00155C  EFDD  F00A         	goto	l3821
  1702  001560                     u3650:
  1703  001560                     
  1704                           ; BSR set to: 1
  1705  001560  0E54               	movlw	84
  1706  001562  1923               	xorwf	(_sim_msg_array+3)& (0+255),w,b
  1707  001564  A4D8               	btfss	status,2,c
  1708  001566  EFB7  F00A         	goto	u3661
  1709  00156A  EFB9  F00A         	goto	u3660
  1710  00156E                     u3661:
  1711  00156E  EFDD  F00A         	goto	l3821
  1712  001572                     u3660:
  1713  001572                     
  1714                           ; BSR set to: 1
  1715  001572  5124               	movf	(_sim_msg_array+4)& (0+255),w,b
  1716  001574  0D64               	mullw	100
  1717  001576  CFF3 F0E1          	movff	prodl,??_parse_sim_messages
  1718  00157A  CFF4 F0E2          	movff	prodh,??_parse_sim_messages+1
  1719  00157E  5125               	movf	(_sim_msg_array+5)& (0+255),w,b
  1720  001580  0D0A               	mullw	10
  1721  001582  50F3               	movf	243,w,c
  1722  001584  0100               	movlb	0	; () banked
  1723  001586  27E1               	addwf	??_parse_sim_messages& (0+255),f,b
  1724  001588  50F4               	movf	244,w,c
  1725  00158A  23E2               	addwfc	(??_parse_sim_messages+1)& (0+255),f,b
  1726  00158C  0101               	movlb	1	; () banked
  1727  00158E  5126               	movf	(_sim_msg_array+6)& (0+255),w,b
  1728  001590  0100               	movlb	0	; () banked
  1729  001592  27E1               	addwf	??_parse_sim_messages& (0+255),f,b
  1730  001594  0E00               	movlw	0
  1731  001596  23E2               	addwfc	(??_parse_sim_messages+1)& (0+255),f,b
  1732  001598  0E30               	movlw	48
  1733  00159A  25E1               	addwf	??_parse_sim_messages& (0+255),w,b
  1734  00159C  0102               	movlb	2	; () banked
  1735  00159E  6FD9               	movwf	parse_sim_messages@car_id& (0+255),b
  1736  0015A0  0EEB               	movlw	235
  1737  0015A2  0100               	movlb	0	; () banked
  1738  0015A4  21E2               	addwfc	(??_parse_sim_messages+1)& (0+255),w,b
  1739  0015A6  0102               	movlb	2	; () banked
  1740  0015A8  6FDA               	movwf	(parse_sim_messages@car_id+1)& (0+255),b
  1741  0015AA                     
  1742                           ; BSR set to: 2
  1743  0015AA  C2D9  F0D9         	movff	parse_sim_messages@car_id,handle_exit@car_id
  1744  0015AE  C2DA  F0DA         	movff	parse_sim_messages@car_id+1,handle_exit@car_id+1
  1745  0015B2  EC62  F00E         	call	_handle_exit	;wreg free
  1746  0015B6  EF3C  F00B         	goto	l272
  1747  0015BA                     l3821:
  1748                           
  1749                           ; BSR set to: 1
  1750  0015BA  0E53               	movlw	83
  1751  0015BC  1921               	xorwf	(_sim_msg_array+1)& (0+255),w,b
  1752  0015BE  A4D8               	btfss	status,2,c
  1753  0015C0  EFE4  F00A         	goto	u3671
  1754  0015C4  EFE6  F00A         	goto	u3670
  1755  0015C8                     u3671:
  1756  0015C8  EF27  F00A         	goto	l271
  1757  0015CC                     u3670:
  1758  0015CC                     
  1759                           ; BSR set to: 1
  1760  0015CC  0E55               	movlw	85
  1761  0015CE  1922               	xorwf	(_sim_msg_array+2)& (0+255),w,b
  1762  0015D0  A4D8               	btfss	status,2,c
  1763  0015D2  EFED  F00A         	goto	u3681
  1764  0015D6  EFEF  F00A         	goto	u3680
  1765  0015DA                     u3681:
  1766  0015DA  EF27  F00A         	goto	l271
  1767  0015DE                     u3680:
  1768  0015DE                     
  1769                           ; BSR set to: 1
  1770  0015DE  0E42               	movlw	66
  1771  0015E0  1923               	xorwf	(_sim_msg_array+3)& (0+255),w,b
  1772  0015E2  A4D8               	btfss	status,2,c
  1773  0015E4  EFF6  F00A         	goto	u3691
  1774  0015E8  EFF8  F00A         	goto	u3690
  1775  0015EC                     u3691:
  1776  0015EC  EF27  F00A         	goto	l271
  1777  0015F0                     u3690:
  1778  0015F0                     
  1779                           ; BSR set to: 1
  1780  0015F0  5124               	movf	(_sim_msg_array+4)& (0+255),w,b
  1781  0015F2  0D64               	mullw	100
  1782  0015F4  CFF3 F0E1          	movff	prodl,??_parse_sim_messages
  1783  0015F8  CFF4 F0E2          	movff	prodh,??_parse_sim_messages+1
  1784  0015FC  5125               	movf	(_sim_msg_array+5)& (0+255),w,b
  1785  0015FE  0D0A               	mullw	10
  1786  001600  50F3               	movf	243,w,c
  1787  001602  0100               	movlb	0	; () banked
  1788  001604  27E1               	addwf	??_parse_sim_messages& (0+255),f,b
  1789  001606  50F4               	movf	244,w,c
  1790  001608  23E2               	addwfc	(??_parse_sim_messages+1)& (0+255),f,b
  1791  00160A  0101               	movlb	1	; () banked
  1792  00160C  5126               	movf	(_sim_msg_array+6)& (0+255),w,b
  1793  00160E  0100               	movlb	0	; () banked
  1794  001610  27E1               	addwf	??_parse_sim_messages& (0+255),f,b
  1795  001612  0E00               	movlw	0
  1796  001614  23E2               	addwfc	(??_parse_sim_messages+1)& (0+255),f,b
  1797  001616  0E30               	movlw	48
  1798  001618  25E1               	addwf	??_parse_sim_messages& (0+255),w,b
  1799  00161A  0102               	movlb	2	; () banked
  1800  00161C  6FD9               	movwf	parse_sim_messages@car_id& (0+255),b
  1801  00161E  0EEB               	movlw	235
  1802  001620  0100               	movlb	0	; () banked
  1803  001622  21E2               	addwfc	(??_parse_sim_messages+1)& (0+255),w,b
  1804  001624  0102               	movlb	2	; () banked
  1805  001626  6FDA               	movwf	(parse_sim_messages@car_id+1)& (0+255),b
  1806  001628                     
  1807                           ; BSR set to: 2
  1808  001628  0101               	movlb	1	; () banked
  1809  00162A  5127               	movf	(_sim_msg_array+7)& (0+255),w,b
  1810  00162C  0FBF               	addlw	191
  1811  00162E  0102               	movlb	2	; () banked
  1812  001630  6FD8               	movwf	parse_sim_messages@level& (0+255),b
  1813  001632                     
  1814                           ; BSR set to: 2
  1815  001632  0101               	movlb	1	; () banked
  1816  001634  5128               	movf	(_sim_msg_array+8)& (0+255),w,b
  1817  001636  0D0A               	mullw	10
  1818  001638  CFF3 F0E1          	movff	prodl,??_parse_sim_messages
  1819  00163C  CFF4 F0E2          	movff	prodh,??_parse_sim_messages+1
  1820  001640  5129               	movf	(_sim_msg_array+9)& (0+255),w,b
  1821  001642  0100               	movlb	0	; () banked
  1822  001644  27E1               	addwf	??_parse_sim_messages& (0+255),f,b
  1823  001646  0E00               	movlw	0
  1824  001648  23E2               	addwfc	(??_parse_sim_messages+1)& (0+255),f,b
  1825  00164A  0EEF               	movlw	239
  1826  00164C  25E1               	addwf	??_parse_sim_messages& (0+255),w,b
  1827  00164E  0102               	movlb	2	; () banked
  1828  001650  6FD6               	movwf	parse_sim_messages@spot& (0+255),b
  1829  001652  0EFD               	movlw	253
  1830  001654  0100               	movlb	0	; () banked
  1831  001656  21E2               	addwfc	(??_parse_sim_messages+1)& (0+255),w,b
  1832  001658  0102               	movlb	2	; () banked
  1833  00165A  6FD7               	movwf	(parse_sim_messages@spot+1)& (0+255),b
  1834  00165C                     
  1835                           ; BSR set to: 2
  1836  00165C  C2D9  F0C8         	movff	parse_sim_messages@car_id,handle_subscr@car_id
  1837  001660  C2DA  F0C9         	movff	parse_sim_messages@car_id+1,handle_subscr@car_id+1
  1838  001664  C2D8  F0CA         	movff	parse_sim_messages@level,handle_subscr@level
  1839  001668  0100               	movlb	0	; () banked
  1840  00166A  6BCB               	clrf	(handle_subscr@level+1)& (0+255),b
  1841  00166C  C2D6  F0CC         	movff	parse_sim_messages@spot,handle_subscr@spot
  1842  001670  C2D7  F0CD         	movff	parse_sim_messages@spot+1,handle_subscr@spot+1
  1843  001674  EC96  F011         	call	_handle_subscr	;wreg free
  1844  001678                     l272:
  1845  001678  0012               	return		;funcret
  1846  00167A                     __end_of_parse_sim_messages:
  1847                           	callstack 0
  1848                           
  1849 ;; *************** function _handle_subscr *****************
  1850 ;; Defined at:
  1851 ;;		line 355 in file "main.c"
  1852 ;; Parameters:    Size  Location     Type
  1853 ;;  car_id          2  104[BANK0 ] int 
  1854 ;;  level           2  106[BANK0 ] int 
  1855 ;;  spot            2  108[BANK0 ] int 
  1856 ;; Auto vars:     Size  Location     Type
  1857 ;;  sub_fee         2  114[BANK0 ] int 
  1858 ;; Return value:  Size  Location     Type
  1859 ;;                  1    wreg      void 
  1860 ;; Registers used:
  1861 ;;		wreg, fsr1l, fsr1h, fsr2l, fsr2h, status,2, status,0, tblptrl, tblptrh, tblptru, prodl, prodh, cstack
  1862 ;; Tracked objects:
  1863 ;;		On entry : 0/0
  1864 ;;		On exit  : 0/0
  1865 ;;		Unchanged: 0/0
  1866 ;; Data sizes:     COMRAM   BANK0   BANK1   BANK2   BANK3   BANK4   BANK5   BANK6   BANK7   BANK8   BANK9  BANK10  BANK1
      +1  BANK12  BANK13  BANK14  BANK15
  1867 ;;      Params:         0       6       0       0       0       0       0       0       0       0       0       0       
      +0       0       0       0       0
  1868 ;;      Locals:         0       2       0       0       0       0       0       0       0       0       0       0       
      +0       0       0       0       0
  1869 ;;      Temps:          0       4       0       0       0       0       0       0       0       0       0       0       
      +0       0       0       0       0
  1870 ;;      Totals:         0      12       0       0       0       0       0       0       0       0       0       0       
      +0       0       0       0       0
  1871 ;;Total ram usage:       12 bytes
  1872 ;; Hardware stack levels used:    1
  1873 ;; Hardware stack levels required when called:   12
  1874 ;; This function calls:
  1875 ;;		___wmul
  1876 ;;		_push_sub_rsp
  1877 ;; This function is called by:
  1878 ;;		_parse_sim_messages
  1879 ;; This function uses a non-reentrant model
  1880 ;;
  1881                           
  1882                           	psect	text3
  1883  00232C                     __ptext3:
  1884                           	callstack 0
  1885  00232C                     _handle_subscr:
  1886                           	callstack 17
  1887  00232C                     
  1888                           ;main.c: 356:     init_adc();
  1889  00232C  0E00               	movlw	0
  1890  00232E  0100               	movlb	0	; () banked
  1891  002330  6FD3               	movwf	(handle_subscr@sub_fee+1)& (0+255),b
  1892  002332  0E00               	movlw	0
  1893  002334  6FD2               	movwf	handle_subscr@sub_fee& (0+255),b
  1894  002336                     
  1895                           ; BSR set to: 0
  1896                           ;main.c: 357:     init_int();
  1897  002336  C0CA  F018         	movff	handle_subscr@level,___wmul@multiplier
  1898  00233A  C0CB  F019         	movff	handle_subscr@level+1,___wmul@multiplier+1
  1899  00233E  0E00               	movlw	0
  1900  002340  6E1B               	movwf	(___wmul@multiplicand+1)^0,c
  1901  002342  0E14               	movlw	20
  1902  002344  6E1A               	movwf	___wmul@multiplicand^0,c
  1903  002346  EC97  F018         	call	___wmul	;wreg free
  1904  00234A  0E7C               	movlw	low _park_slots
  1905  00234C  0100               	movlb	0	; () banked
  1906  00234E  6FCE               	movwf	??_handle_subscr& (0+255),b
  1907  002350  0E01               	movlw	high _park_slots
  1908  002352  6FCF               	movwf	(??_handle_subscr+1)& (0+255),b
  1909  002354  5018               	movf	?___wmul^0,w,c
  1910  002356  27CE               	addwf	??_handle_subscr& (0+255),f,b
  1911  002358  5019               	movf	(?___wmul+1)^0,w,c
  1912  00235A  23CF               	addwfc	(??_handle_subscr+1)& (0+255),f,b
  1913  00235C  90D8               	bcf	status,0,c
  1914  00235E  35CC               	rlcf	handle_subscr@spot& (0+255),w,b
  1915  002360  6ED9               	movwf	fsr2l,c
  1916  002362  35CD               	rlcf	(handle_subscr@spot+1)& (0+255),w,b
  1917  002364  6EDA               	movwf	fsr2h,c
  1918  002366  51CE               	movf	??_handle_subscr& (0+255),w,b
  1919  002368  26D9               	addwf	fsr2l,f,c
  1920  00236A  51CF               	movf	(??_handle_subscr+1)& (0+255),w,b
  1921  00236C  22DA               	addwfc	fsr2h,f,c
  1922  00236E  28DE               	incf	postinc2,w,c
  1923  002370  E106               	bnz	u3441
  1924  002372  28DE               	incf	postinc2,w,c
  1925  002374  A4D8               	btfss	status,2,c
  1926  002376  EFBF  F011         	goto	u3441
  1927  00237A  EFC1  F011         	goto	u3440
  1928  00237E                     u3441:
  1929  00237E  EF0B  F012         	goto	l3681
  1930  002382                     u3440:
  1931  002382                     
  1932                           ; BSR set to: 0
  1933  002382  C0CA  F018         	movff	handle_subscr@level,___wmul@multiplier
  1934  002386  C0CB  F019         	movff	handle_subscr@level+1,___wmul@multiplier+1
  1935  00238A  0E00               	movlw	0
  1936  00238C  6E1B               	movwf	(___wmul@multiplicand+1)^0,c
  1937  00238E  0E14               	movlw	20
  1938  002390  6E1A               	movwf	___wmul@multiplicand^0,c
  1939  002392  EC97  F018         	call	___wmul	;wreg free
  1940  002396  0E2C               	movlw	low _reserved_slots
  1941  002398  0100               	movlb	0	; () banked
  1942  00239A  6FCE               	movwf	??_handle_subscr& (0+255),b
  1943  00239C  0E01               	movlw	high _reserved_slots
  1944  00239E  6FCF               	movwf	(??_handle_subscr+1)& (0+255),b
  1945  0023A0  5018               	movf	?___wmul^0,w,c
  1946  0023A2  27CE               	addwf	??_handle_subscr& (0+255),f,b
  1947  0023A4  5019               	movf	(?___wmul+1)^0,w,c
  1948  0023A6  23CF               	addwfc	(??_handle_subscr+1)& (0+255),f,b
  1949  0023A8  90D8               	bcf	status,0,c
  1950  0023AA  35CC               	rlcf	handle_subscr@spot& (0+255),w,b
  1951  0023AC  6ED9               	movwf	fsr2l,c
  1952  0023AE  35CD               	rlcf	(handle_subscr@spot+1)& (0+255),w,b
  1953  0023B0  6EDA               	movwf	fsr2h,c
  1954  0023B2  51CE               	movf	??_handle_subscr& (0+255),w,b
  1955  0023B4  26D9               	addwf	fsr2l,f,c
  1956  0023B6  51CF               	movf	(??_handle_subscr+1)& (0+255),w,b
  1957  0023B8  22DA               	addwfc	fsr2h,f,c
  1958  0023BA  28DE               	incf	postinc2,w,c
  1959  0023BC  E106               	bnz	u3451
  1960  0023BE  28DE               	incf	postinc2,w,c
  1961  0023C0  A4D8               	btfss	status,2,c
  1962  0023C2  EFE5  F011         	goto	u3451
  1963  0023C6  EFE7  F011         	goto	u3450
  1964  0023CA                     u3451:
  1965  0023CA  EF0B  F012         	goto	l3681
  1966  0023CE                     u3450:
  1967  0023CE                     
  1968                           ; BSR set to: 0
  1969                           ;main.c: 358:     init_vars();
  1970  0023CE  0E00               	movlw	0
  1971  0023D0  6FD3               	movwf	(handle_subscr@sub_fee+1)& (0+255),b
  1972  0023D2  0E32               	movlw	50
  1973  0023D4  6FD2               	movwf	handle_subscr@sub_fee& (0+255),b
  1974  0023D6                     
  1975                           ; BSR set to: 0
  1976                           ;main.c: 359:     while(1) {
  1977  0023D6  C0CA  F018         	movff	handle_subscr@level,___wmul@multiplier
  1978  0023DA  C0CB  F019         	movff	handle_subscr@level+1,___wmul@multiplier+1
  1979  0023DE  0E00               	movlw	0
  1980  0023E0  6E1B               	movwf	(___wmul@multiplicand+1)^0,c
  1981  0023E2  0E14               	movlw	20
  1982  0023E4  6E1A               	movwf	___wmul@multiplicand^0,c
  1983  0023E6  EC97  F018         	call	___wmul	;wreg free
  1984  0023EA  0E2C               	movlw	low _reserved_slots
  1985  0023EC  0100               	movlb	0	; () banked
  1986  0023EE  6FCE               	movwf	??_handle_subscr& (0+255),b
  1987  0023F0  0E01               	movlw	high _reserved_slots
  1988  0023F2  6FCF               	movwf	(??_handle_subscr+1)& (0+255),b
  1989  0023F4  5018               	movf	?___wmul^0,w,c
  1990  0023F6  27CE               	addwf	??_handle_subscr& (0+255),f,b
  1991  0023F8  5019               	movf	(?___wmul+1)^0,w,c
  1992  0023FA  23CF               	addwfc	(??_handle_subscr+1)& (0+255),f,b
  1993  0023FC  90D8               	bcf	status,0,c
  1994  0023FE  35CC               	rlcf	handle_subscr@spot& (0+255),w,b
  1995  002400  6ED9               	movwf	fsr2l,c
  1996  002402  35CD               	rlcf	(handle_subscr@spot+1)& (0+255),w,b
  1997  002404  6EDA               	movwf	fsr2h,c
  1998  002406  51CE               	movf	??_handle_subscr& (0+255),w,b
  1999  002408  26D9               	addwf	fsr2l,f,c
  2000  00240A  51CF               	movf	(??_handle_subscr+1)& (0+255),w,b
  2001  00240C  22DA               	addwfc	fsr2h,f,c
  2002  00240E  C0C8  FFDE         	movff	handle_subscr@car_id,postinc2
  2003  002412  C0C9  FFDD         	movff	handle_subscr@car_id+1,postdec2
  2004  002416                     l3681:
  2005                           
  2006                           ; BSR set to: 0
  2007                           ;main.c: 361:             packet_task();
  2008  002416  51D2               	movf	handle_subscr@sub_fee& (0+255),w,b
  2009  002418  263D               	addwf	_total_money^0,f,c
  2010  00241A  51D3               	movf	(handle_subscr@sub_fee+1)& (0+255),w,b
  2011  00241C  223E               	addwfc	(_total_money+1)^0,f,c
  2012  00241E                     
  2013                           ; BSR set to: 0
  2014                           ;main.c: 362:             msg_last_char = 0;
  2015  00241E  C0C8  F0B7         	movff	handle_subscr@car_id,push_sub_rsp@car_id
  2016  002422  C0C9  F0B8         	movff	handle_subscr@car_id+1,push_sub_rsp@car_id+1
  2017  002426  C0D2  F0B9         	movff	handle_subscr@sub_fee,push_sub_rsp@fee
  2018  00242A  C0D3  F0BA         	movff	handle_subscr@sub_fee+1,push_sub_rsp@fee+1
  2019  00242E  EC8C  F016         	call	_push_sub_rsp	;wreg free
  2020  002432  0012               	return		;funcret
  2021  002434                     __end_of_handle_subscr:
  2022                           	callstack 0
  2023                           
  2024 ;; *************** function _push_sub_rsp *****************
  2025 ;; Defined at:
  2026 ;;		line 276 in file "main.c"
  2027 ;; Parameters:    Size  Location     Type
  2028 ;;  car_id          2   87[BANK0 ] int 
  2029 ;;  fee             2   89[BANK0 ] int 
  2030 ;; Auto vars:     Size  Location     Type
  2031 ;;  i               1  103[BANK0 ] unsigned char 
  2032 ;;  response_buf   11   92[BANK0 ] unsigned char [11]
  2033 ;; Return value:  Size  Location     Type
  2034 ;;                  1    wreg      void 
  2035 ;; Registers used:
  2036 ;;		wreg, fsr1l, fsr1h, fsr2l, fsr2h, status,2, status,0, tblptrl, tblptrh, tblptru, prodl, prodh, cstack
  2037 ;; Tracked objects:
  2038 ;;		On entry : 0/0
  2039 ;;		On exit  : 0/0
  2040 ;;		Unchanged: 0/0
  2041 ;; Data sizes:     COMRAM   BANK0   BANK1   BANK2   BANK3   BANK4   BANK5   BANK6   BANK7   BANK8   BANK9  BANK10  BANK1
      +1  BANK12  BANK13  BANK14  BANK15
  2042 ;;      Params:         0       4       0       0       0       0       0       0       0       0       0       0       
      +0       0       0       0       0
  2043 ;;      Locals:         0      12       0       0       0       0       0       0       0       0       0       0       
      +0       0       0       0       0
  2044 ;;      Temps:          0       1       0       0       0       0       0       0       0       0       0       0       
      +0       0       0       0       0
  2045 ;;      Totals:         0      17       0       0       0       0       0       0       0       0       0       0       
      +0       0       0       0       0
  2046 ;;Total ram usage:       17 bytes
  2047 ;; Hardware stack levels used:    1
  2048 ;; Hardware stack levels required when called:   11
  2049 ;; This function calls:
  2050 ;;		_buf_push
  2051 ;;		_sprintf
  2052 ;; This function is called by:
  2053 ;;		_handle_subscr
  2054 ;; This function uses a non-reentrant model
  2055 ;;
  2056                           
  2057                           	psect	text4
  2058  002D18                     __ptext4:
  2059                           	callstack 0
  2060  002D18                     _push_sub_rsp:
  2061                           	callstack 17
  2062  002D18                     
  2063                           ;main.c: 277: ;main.c: 278:     while(!buf_isempty(INBUF)){
  2064  002D18  0EBC               	movlw	low push_sub_rsp@response_buf
  2065  002D1A  0100               	movlb	0	; () banked
  2066  002D1C  6FA3               	movwf	sprintf@s& (0+255),b
  2067  002D1E  0E00               	movlw	high push_sub_rsp@response_buf
  2068  002D20  6FA4               	movwf	(sprintf@s+1)& (0+255),b
  2069  002D22  0E11               	movlw	low STR_4
  2070  002D24  6FA5               	movwf	sprintf@fmt& (0+255),b
  2071  002D26  0E10               	movlw	high STR_4
  2072  002D28  6FA6               	movwf	(sprintf@fmt+1)& (0+255),b
  2073  002D2A  C0B7  F0A7         	movff	push_sub_rsp@car_id,?_sprintf+4
  2074  002D2E  C0B8  F0A8         	movff	push_sub_rsp@car_id+1,?_sprintf+5
  2075  002D32  C0B9  F0A9         	movff	push_sub_rsp@fee,?_sprintf+6
  2076  002D36  C0BA  F0AA         	movff	push_sub_rsp@fee+1,?_sprintf+7
  2077  002D3A  EC50  F017         	call	_sprintf	;wreg free
  2078  002D3E                     
  2079                           ;main.c: 280:         buf_pop(INBUF, 512);
  2080  002D3E  0E00               	movlw	0
  2081  002D40  0100               	movlb	0	; () banked
  2082  002D42  6FC7               	movwf	push_sub_rsp@i& (0+255),b
  2083  002D44                     l3607:
  2084                           
  2085                           ; BSR set to: 0
  2086                           ;main.c: 281:         enable_rxtx();
  2087  002D44  0EBC               	movlw	low push_sub_rsp@response_buf
  2088  002D46  25C7               	addwf	push_sub_rsp@i& (0+255),w,b
  2089  002D48  6ED9               	movwf	fsr2l,c
  2090  002D4A  6ADA               	clrf	fsr2h,c
  2091  002D4C  0E00               	movlw	high push_sub_rsp@response_buf
  2092  002D4E  22DA               	addwfc	fsr2h,f,c
  2093  002D50  50DF               	movf	indf2,w,c
  2094  002D52  6FBB               	movwf	??_push_sub_rsp& (0+255),b
  2095  002D54  51BB               	movf	??_push_sub_rsp& (0+255),w,b
  2096  002D56  6E18               	movwf	buf_push@v^0,c
  2097  002D58  6A19               	clrf	(buf_push@v+1)^0,c
  2098  002D5A  0E01               	movlw	1
  2099  002D5C  6E1A               	movwf	buf_push@buf^0,c
  2100  002D5E  0E02               	movlw	2
  2101  002D60  6E1C               	movwf	(buf_push@size+1)^0,c
  2102  002D62  0E00               	movlw	0
  2103  002D64  6E1B               	movwf	buf_push@size^0,c
  2104  002D66  EC1A  F012         	call	_buf_push	;wreg free
  2105  002D6A                     
  2106                           ;main.c: 282:     }
  2107  002D6A  0100               	movlb	0	; () banked
  2108  002D6C  2BC7               	incf	push_sub_rsp@i& (0+255),f,b
  2109  002D6E                     
  2110                           ; BSR set to: 0
  2111  002D6E  0E09               	movlw	9
  2112  002D70  65C7               	cpfsgt	push_sub_rsp@i& (0+255),b
  2113  002D72  EFBD  F016         	goto	u3351
  2114  002D76  EFBF  F016         	goto	u3350
  2115  002D7A                     u3351:
  2116  002D7A  EFA2  F016         	goto	l3607
  2117  002D7E                     u3350:
  2118  002D7E                     
  2119                           ; BSR set to: 0
  2120  002D7E  0012               	return		;funcret
  2121  002D80                     __end_of_push_sub_rsp:
  2122                           	callstack 0
  2123                           
  2124 ;; *************** function _handle_go *****************
  2125 ;; Defined at:
  2126 ;;		line 367 in file "main.c"
  2127 ;; Parameters:    Size  Location     Type
  2128 ;;		None
  2129 ;; Auto vars:     Size  Location     Type
  2130 ;;		None
  2131 ;; Return value:  Size  Location     Type
  2132 ;;                  1    wreg      void 
  2133 ;; Registers used:
  2134 ;;		wreg, status,2
  2135 ;; Tracked objects:
  2136 ;;		On entry : 0/0
  2137 ;;		On exit  : 0/0
  2138 ;;		Unchanged: 0/0
  2139 ;; Data sizes:     COMRAM   BANK0   BANK1   BANK2   BANK3   BANK4   BANK5   BANK6   BANK7   BANK8   BANK9  BANK10  BANK1
      +1  BANK12  BANK13  BANK14  BANK15
  2140 ;;      Params:         0       0       0       0       0       0       0       0       0       0       0       0       
      +0       0       0       0       0
  2141 ;;      Locals:         0       0       0       0       0       0       0       0       0       0       0       0       
      +0       0       0       0       0
  2142 ;;      Temps:          0       0       0       0       0       0       0       0       0       0       0       0       
      +0       0       0       0       0
  2143 ;;      Totals:         0       0       0       0       0       0       0       0       0       0       0       0       
      +0       0       0       0       0
  2144 ;;Total ram usage:        0 bytes
  2145 ;; Hardware stack levels used:    1
  2146 ;; Hardware stack levels required when called:    3
  2147 ;; This function calls:
  2148 ;;		Nothing
  2149 ;; This function is called by:
  2150 ;;		_parse_sim_messages
  2151 ;; This function uses a non-reentrant model
  2152 ;;
  2153                           
  2154                           	psect	text5
  2155  00316E                     __ptext5:
  2156                           	callstack 0
  2157  00316E                     _handle_go:
  2158                           	callstack 26
  2159  00316E                     
  2160                           ;main.c: 368:         }
  2161  00316E  8ED5               	bsf	213,7,c	;volatile
  2162  003170                     
  2163                           ;main.c: 369:         if(pic_msg_count==20){
  2164  003170  0E3C               	movlw	60
  2165  003172  6ED7               	movwf	215,c	;volatile
  2166                           
  2167                           ;main.c: 370:             pic_msg_count=0;
  2168  003174  0EAF               	movlw	175
  2169  003176  6ED6               	movwf	214,c	;volatile
  2170                           
  2171                           ;main.c: 372:             if(buf_isempty(OUTBUF)){
  2172  003178  0E00               	movlw	0
  2173  00317A  6E9A               	movwf	154,c	;volatile
  2174                           
  2175                           ;main.c: 373:                 push_emp_rsp();
  2176  00317C  0E00               	movlw	0
  2177  00317E  6E87               	movwf	135,c	;volatile
  2178                           
  2179                           ;main.c: 374:             }
  2180  003180  0E00               	movlw	0
  2181  003182  6E88               	movwf	136,c	;volatile
  2182  003184  0012               	return		;funcret
  2183  003186                     __end_of_handle_go:
  2184                           	callstack 0
  2185                           
  2186 ;; *************** function _handle_exit *****************
  2187 ;; Defined at:
  2188 ;;		line 327 in file "main.c"
  2189 ;; Parameters:    Size  Location     Type
  2190 ;;  car_id          2  121[BANK0 ] int 
  2191 ;; Auto vars:     Size  Location     Type
  2192 ;;  ready_car_id    2    0[BANK2 ] unsigned short 
  2193 ;;  j               1    5[BANK2 ] unsigned char 
  2194 ;;  i               1    4[BANK2 ] unsigned char 
  2195 ;;  exit_fee        2    2[BANK2 ] int 
  2196 ;; Return value:  Size  Location     Type
  2197 ;;                  1    wreg      void 
  2198 ;; Registers used:
  2199 ;;		wreg, fsr1l, fsr1h, fsr2l, fsr2h, status,2, status,0, tblptrl, tblptrh, tblptru, prodl, prodh, cstack
  2200 ;; Tracked objects:
  2201 ;;		On entry : 0/0
  2202 ;;		On exit  : 0/0
  2203 ;;		Unchanged: 0/0
  2204 ;; Data sizes:     COMRAM   BANK0   BANK1   BANK2   BANK3   BANK4   BANK5   BANK6   BANK7   BANK8   BANK9  BANK10  BANK1
      +1  BANK12  BANK13  BANK14  BANK15
  2205 ;;      Params:         0       2       0       0       0       0       0       0       0       0       0       0       
      +0       0       0       0       0
  2206 ;;      Locals:         0       0       0       6       0       0       0       0       0       0       0       0       
      +0       0       0       0       0
  2207 ;;      Temps:          0       6       0       0       0       0       0       0       0       0       0       0       
      +0       0       0       0       0
  2208 ;;      Totals:         0       8       0       6       0       0       0       0       0       0       0       0       
      +0       0       0       0       0
  2209 ;;Total ram usage:       14 bytes
  2210 ;; Hardware stack levels used:    1
  2211 ;; Hardware stack levels required when called:   14
  2212 ;; This function calls:
  2213 ;;		_buf_isempty
  2214 ;;		_buf_pop
  2215 ;;		_disable_rxtx
  2216 ;;		_enable_rxtx
  2217 ;;		_handle_park
  2218 ;;		_push_park_fee_rsp
  2219 ;; This function is called by:
  2220 ;;		_parse_sim_messages
  2221 ;; This function uses a non-reentrant model
  2222 ;;
  2223                           
  2224                           	psect	text6
  2225  001CC4                     __ptext6:
  2226                           	callstack 0
  2227  001CC4                     _handle_exit:
  2228                           	callstack 15
  2229  001CC4                     
  2230                           ;main.c: 328:     } else if (
  2231  001CC4  0E00               	movlw	0
  2232  001CC6  0102               	movlb	2	; () banked
  2233  001CC8  6FD3               	movwf	(handle_exit@exit_fee+1)& (0+255),b
  2234  001CCA  0E00               	movlw	0
  2235  001CCC  6FD2               	movwf	handle_exit@exit_fee& (0+255),b
  2236                           
  2237                           ;main.c: 329:             sim_msg_array[1] == 'S' &&
  2238  001CCE  0E00               	movlw	0
  2239  001CD0  6FD4               	movwf	handle_exit@i& (0+255),b
  2240  001CD2                     l3633:
  2241                           
  2242                           ; BSR set to: 2
  2243                           ;main.c: 330:             sim_msg_array[2] == 'U' &&
  2244  001CD2  0E00               	movlw	0
  2245  001CD4  6FD5               	movwf	handle_exit@j& (0+255),b
  2246  001CD6                     l3639:
  2247                           
  2248                           ; BSR set to: 2
  2249                           ;main.c: 331:             sim_msg_array[3] == 'B'){
  2250  001CD6  51D5               	movf	handle_exit@j& (0+255),w,b
  2251  001CD8  0D02               	mullw	2
  2252  001CDA  CFF3 F0DB          	movff	prodl,??_handle_exit
  2253  001CDE  CFF4 F0DC          	movff	prodh,??_handle_exit+1
  2254  001CE2  51D4               	movf	handle_exit@i& (0+255),w,b
  2255  001CE4  0D14               	mullw	20
  2256  001CE6  0E7C               	movlw	low _park_slots
  2257  001CE8  0100               	movlb	0	; () banked
  2258  001CEA  6FDD               	movwf	(??_handle_exit+2)& (0+255),b
  2259  001CEC  0E01               	movlw	high _park_slots
  2260  001CEE  6FDE               	movwf	(??_handle_exit+3)& (0+255),b
  2261  001CF0  50F3               	movf	243,w,c
  2262  001CF2  27DD               	addwf	(??_handle_exit+2)& (0+255),f,b
  2263  001CF4  50F4               	movf	244,w,c
  2264  001CF6  23DE               	addwfc	(??_handle_exit+3)& (0+255),f,b
  2265  001CF8  51DB               	movf	??_handle_exit& (0+255),w,b
  2266  001CFA  25DD               	addwf	(??_handle_exit+2)& (0+255),w,b
  2267  001CFC  6ED9               	movwf	fsr2l,c
  2268  001CFE  51DC               	movf	(??_handle_exit+1)& (0+255),w,b
  2269  001D00  21DE               	addwfc	(??_handle_exit+3)& (0+255),w,b
  2270  001D02  6EDA               	movwf	fsr2h,c
  2271  001D04  51D9               	movf	handle_exit@car_id& (0+255),w,b
  2272  001D06  18DE               	xorwf	postinc2,w,c
  2273  001D08  E107               	bnz	u3391
  2274  001D0A  51DA               	movf	(handle_exit@car_id+1)& (0+255),w,b
  2275  001D0C  18DE               	xorwf	postinc2,w,c
  2276  001D0E  A4D8               	btfss	status,2,c
  2277  001D10  EF8C  F00E         	goto	u3391
  2278  001D14  EF8E  F00E         	goto	u3390
  2279  001D18                     u3391:
  2280  001D18  EF43  F00F         	goto	l3663
  2281  001D1C                     u3390:
  2282  001D1C                     
  2283                           ; BSR set to: 0
  2284                           ;main.c: 332: 
  2285  001D1C  0102               	movlb	2	; () banked
  2286  001D1E  51D5               	movf	handle_exit@j& (0+255),w,b
  2287  001D20  0D02               	mullw	2
  2288  001D22  CFF3 F0DB          	movff	prodl,??_handle_exit
  2289  001D26  CFF4 F0DC          	movff	prodh,??_handle_exit+1
  2290  001D2A  51D4               	movf	handle_exit@i& (0+255),w,b
  2291  001D2C  0D14               	mullw	20
  2292  001D2E  0E7C               	movlw	low _park_slots
  2293  001D30  0100               	movlb	0	; () banked
  2294  001D32  6FDD               	movwf	(??_handle_exit+2)& (0+255),b
  2295  001D34  0E01               	movlw	high _park_slots
  2296  001D36  6FDE               	movwf	(??_handle_exit+3)& (0+255),b
  2297  001D38  50F3               	movf	243,w,c
  2298  001D3A  27DD               	addwf	(??_handle_exit+2)& (0+255),f,b
  2299  001D3C  50F4               	movf	244,w,c
  2300  001D3E  23DE               	addwfc	(??_handle_exit+3)& (0+255),f,b
  2301  001D40  51DB               	movf	??_handle_exit& (0+255),w,b
  2302  001D42  25DD               	addwf	(??_handle_exit+2)& (0+255),w,b
  2303  001D44  6ED9               	movwf	fsr2l,c
  2304  001D46  51DC               	movf	(??_handle_exit+1)& (0+255),w,b
  2305  001D48  21DE               	addwfc	(??_handle_exit+3)& (0+255),w,b
  2306  001D4A  6EDA               	movwf	fsr2h,c
  2307  001D4C  0EFF               	movlw	255
  2308  001D4E  6EDE               	movwf	postinc2,c
  2309  001D50  0EFF               	movlw	255
  2310  001D52  6EDD               	movwf	postdec2,c
  2311                           
  2312                           ;main.c: 333:         car_id = (sim_msg_array[4]-'0')*100
  2313  001D54  0102               	movlb	2	; () banked
  2314  001D56  51D5               	movf	handle_exit@j& (0+255),w,b
  2315  001D58  0D02               	mullw	2
  2316  001D5A  CFF3 F0DB          	movff	prodl,??_handle_exit
  2317  001D5E  CFF4 F0DC          	movff	prodh,??_handle_exit+1
  2318  001D62  51D4               	movf	handle_exit@i& (0+255),w,b
  2319  001D64  0D14               	mullw	20
  2320  001D66  0E2C               	movlw	low _reserved_slots
  2321  001D68  0100               	movlb	0	; () banked
  2322  001D6A  6FDD               	movwf	(??_handle_exit+2)& (0+255),b
  2323  001D6C  0E01               	movlw	high _reserved_slots
  2324  001D6E  6FDE               	movwf	(??_handle_exit+3)& (0+255),b
  2325  001D70  50F3               	movf	243,w,c
  2326  001D72  27DD               	addwf	(??_handle_exit+2)& (0+255),f,b
  2327  001D74  50F4               	movf	244,w,c
  2328  001D76  23DE               	addwfc	(??_handle_exit+3)& (0+255),f,b
  2329  001D78  51DB               	movf	??_handle_exit& (0+255),w,b
  2330  001D7A  25DD               	addwf	(??_handle_exit+2)& (0+255),w,b
  2331  001D7C  6ED9               	movwf	fsr2l,c
  2332  001D7E  51DC               	movf	(??_handle_exit+1)& (0+255),w,b
  2333  001D80  21DE               	addwfc	(??_handle_exit+3)& (0+255),w,b
  2334  001D82  6EDA               	movwf	fsr2h,c
  2335  001D84  51D9               	movf	handle_exit@car_id& (0+255),w,b
  2336  001D86  18DE               	xorwf	postinc2,w,c
  2337  001D88  E109               	bnz	u3400
  2338  001D8A  51DA               	movf	(handle_exit@car_id+1)& (0+255),w,b
  2339  001D8C  18DE               	xorwf	postinc2,w,c
  2340  001D8E  B4D8               	btfsc	status,2,c
  2341  001D90  EFCC  F00E         	goto	u3401
  2342  001D94  EFCE  F00E         	goto	u3400
  2343  001D98                     u3401:
  2344  001D98  EFF3  F00E         	goto	l251
  2345  001D9C                     u3400:
  2346  001D9C                     
  2347                           ; BSR set to: 0
  2348                           ;main.c: 334:                   + (sim_msg_array[5]-'0')*10
  2349  001D9C  0102               	movlb	2	; () banked
  2350  001D9E  51D5               	movf	handle_exit@j& (0+255),w,b
  2351  001DA0  0D02               	mullw	2
  2352  001DA2  CFF3 F0DB          	movff	prodl,??_handle_exit
  2353  001DA6  CFF4 F0DC          	movff	prodh,??_handle_exit+1
  2354  001DAA  51D4               	movf	handle_exit@i& (0+255),w,b
  2355  001DAC  0D14               	mullw	20
  2356  001DAE  0E80               	movlw	low _park_fee_counter
  2357  001DB0  0100               	movlb	0	; () banked
  2358  001DB2  6FDD               	movwf	(??_handle_exit+2)& (0+255),b
  2359  001DB4  0E02               	movlw	high _park_fee_counter
  2360  001DB6  6FDE               	movwf	(??_handle_exit+3)& (0+255),b
  2361  001DB8  50F3               	movf	243,w,c
  2362  001DBA  27DD               	addwf	(??_handle_exit+2)& (0+255),f,b
  2363  001DBC  50F4               	movf	244,w,c
  2364  001DBE  23DE               	addwfc	(??_handle_exit+3)& (0+255),f,b
  2365  001DC0  51DB               	movf	??_handle_exit& (0+255),w,b
  2366  001DC2  25DD               	addwf	(??_handle_exit+2)& (0+255),w,b
  2367  001DC4  6ED9               	movwf	fsr2l,c
  2368  001DC6  51DC               	movf	(??_handle_exit+1)& (0+255),w,b
  2369  001DC8  21DE               	addwfc	(??_handle_exit+3)& (0+255),w,b
  2370  001DCA  6EDA               	movwf	fsr2h,c
  2371  001DCC  CFDE F0DF          	movff	postinc2,??_handle_exit+4
  2372  001DD0  CFDD F0E0          	movff	postdec2,??_handle_exit+5
  2373  001DD4  0E01               	movlw	1
  2374  001DD6  25DF               	addwf	(??_handle_exit+4)& (0+255),w,b
  2375  001DD8  0102               	movlb	2	; () banked
  2376  001DDA  6FD2               	movwf	handle_exit@exit_fee& (0+255),b
  2377  001DDC  0E00               	movlw	0
  2378  001DDE  0100               	movlb	0	; () banked
  2379  001DE0  21E0               	addwfc	(??_handle_exit+5)& (0+255),w,b
  2380  001DE2  0102               	movlb	2	; () banked
  2381  001DE4  6FD3               	movwf	(handle_exit@exit_fee+1)& (0+255),b
  2382  001DE6                     l251:
  2383                           
  2384                           ;main.c: 336: 
  2385  001DE6  0102               	movlb	2	; () banked
  2386  001DE8  51D5               	movf	handle_exit@j& (0+255),w,b
  2387  001DEA  0D02               	mullw	2
  2388  001DEC  CFF3 F0DB          	movff	prodl,??_handle_exit
  2389  001DF0  CFF4 F0DC          	movff	prodh,??_handle_exit+1
  2390  001DF4  51D4               	movf	handle_exit@i& (0+255),w,b
  2391  001DF6  0D14               	mullw	20
  2392  001DF8  0E80               	movlw	low _park_fee_counter
  2393  001DFA  0100               	movlb	0	; () banked
  2394  001DFC  6FDD               	movwf	(??_handle_exit+2)& (0+255),b
  2395  001DFE  0E02               	movlw	high _park_fee_counter
  2396  001E00  6FDE               	movwf	(??_handle_exit+3)& (0+255),b
  2397  001E02  50F3               	movf	243,w,c
  2398  001E04  27DD               	addwf	(??_handle_exit+2)& (0+255),f,b
  2399  001E06  50F4               	movf	244,w,c
  2400  001E08  23DE               	addwfc	(??_handle_exit+3)& (0+255),f,b
  2401  001E0A  51DB               	movf	??_handle_exit& (0+255),w,b
  2402  001E0C  25DD               	addwf	(??_handle_exit+2)& (0+255),w,b
  2403  001E0E  6ED9               	movwf	fsr2l,c
  2404  001E10  51DC               	movf	(??_handle_exit+1)& (0+255),w,b
  2405  001E12  21DE               	addwfc	(??_handle_exit+3)& (0+255),w,b
  2406  001E14  6EDA               	movwf	fsr2h,c
  2407  001E16  0E00               	movlw	0
  2408  001E18  6EDE               	movwf	postinc2,c
  2409  001E1A  0E00               	movlw	0
  2410  001E1C  6EDD               	movwf	postdec2,c
  2411  001E1E                     
  2412                           ; BSR set to: 0
  2413                           ;main.c: 337: 
  2414  001E1E  0102               	movlb	2	; () banked
  2415  001E20  51D2               	movf	handle_exit@exit_fee& (0+255),w,b
  2416  001E22  263D               	addwf	_total_money^0,f,c
  2417  001E24  51D3               	movf	(handle_exit@exit_fee+1)& (0+255),w,b
  2418  001E26  223E               	addwfc	(_total_money+1)^0,f,c
  2419  001E28                     
  2420                           ; BSR set to: 2
  2421                           ;main.c: 338:         level = sim_msg_array[7]-'A';
  2422  001E28  0100               	movlb	0	; () banked
  2423  001E2A  4BFE               	infsnz	_empty_space& (0+255),f,b
  2424  001E2C  2BFF               	incf	(_empty_space+1)& (0+255),f,b
  2425  001E2E                     
  2426                           ; BSR set to: 0
  2427                           ;main.c: 340:         spot = (sim_msg_array[8]-'0')*10 + (sim_msg_array[9]-'0')-1;
  2428  001E2E  C0D9  F0B7         	movff	handle_exit@car_id,push_park_fee_rsp@car_id
  2429  001E32  C0DA  F0B8         	movff	handle_exit@car_id+1,push_park_fee_rsp@car_id+1
  2430  001E36  C2D2  F0B9         	movff	handle_exit@exit_fee,push_park_fee_rsp@fee
  2431  001E3A  C2D3  F0BA         	movff	handle_exit@exit_fee+1,push_park_fee_rsp@fee+1
  2432  001E3E  EC1C  F016         	call	_push_park_fee_rsp	;wreg free
  2433  001E42                     
  2434                           ;main.c: 341:         handle_subscr(car_id, level, spot);
  2435  001E42  0E02               	movlw	2
  2436  001E44  ECE8  F017         	call	_buf_isempty
  2437  001E48  0900               	iorlw	0
  2438  001E4A  A4D8               	btfss	status,2,c
  2439  001E4C  EF2A  F00F         	goto	u3411
  2440  001E50  EF2C  F00F         	goto	u3410
  2441  001E54                     u3411:
  2442  001E54  EF56  F00F         	goto	l253
  2443  001E58                     u3410:
  2444  001E58                     
  2445                           ;main.c: 342:     }
  2446  001E58  ECD3  F018         	call	_disable_rxtx	;wreg free
  2447  001E5C                     
  2448                           ;main.c: 343: }
  2449  001E5C  0E00               	movlw	0
  2450  001E5E  6E07               	movwf	(buf_pop@size+1)^0,c
  2451  001E60  0E10               	movlw	16
  2452  001E62  6E06               	movwf	buf_pop@size^0,c
  2453  001E64  0E02               	movlw	2
  2454  001E66  ECF8  F010         	call	_buf_pop
  2455  001E6A  C006  F2D0         	movff	?_buf_pop,handle_exit@ready_car_id
  2456  001E6E  C007  F2D1         	movff	?_buf_pop+1,handle_exit@ready_car_id+1
  2457  001E72                     
  2458                           ;main.c: 344: 
  2459  001E72  ECD0  F018         	call	_enable_rxtx	;wreg free
  2460  001E76                     
  2461                           ;main.c: 345: 
  2462  001E76  C2D0  F0D7         	movff	handle_exit@ready_car_id,handle_park@car_id
  2463  001E7A  C2D1  F0D8         	movff	handle_exit@ready_car_id+1,handle_park@car_id+1
  2464  001E7E  EC08  F018         	call	_handle_park	;wreg free
  2465  001E82  EF56  F00F         	goto	l253
  2466  001E86                     l3663:
  2467                           
  2468                           ; BSR set to: 0
  2469                           ;main.c: 349:         disable_rxtx();
  2470  001E86  0102               	movlb	2	; () banked
  2471  001E88  2BD5               	incf	handle_exit@j& (0+255),f,b
  2472  001E8A                     
  2473                           ; BSR set to: 2
  2474  001E8A  0E09               	movlw	9
  2475  001E8C  65D5               	cpfsgt	handle_exit@j& (0+255),b
  2476  001E8E  EF4B  F00F         	goto	u3421
  2477  001E92  EF4D  F00F         	goto	u3420
  2478  001E96                     u3421:
  2479  001E96  EF6B  F00E         	goto	l3639
  2480  001E9A                     u3420:
  2481  001E9A                     
  2482                           ; BSR set to: 2
  2483                           ;main.c: 350:         sim_msg_array[sim_count++] = buf_pop(INBUF, 512);
  2484  001E9A  2BD4               	incf	handle_exit@i& (0+255),f,b
  2485  001E9C                     
  2486                           ; BSR set to: 2
  2487  001E9C  0E03               	movlw	3
  2488  001E9E  65D4               	cpfsgt	handle_exit@i& (0+255),b
  2489  001EA0  EF54  F00F         	goto	u3431
  2490  001EA4  EF56  F00F         	goto	u3430
  2491  001EA8                     u3431:
  2492  001EA8  EF69  F00E         	goto	l3633
  2493  001EAC                     u3430:
  2494  001EAC                     l253:
  2495  001EAC  0012               	return		;funcret
  2496  001EAE                     __end_of_handle_exit:
  2497                           	callstack 0
  2498                           
  2499 ;; *************** function _push_park_fee_rsp *****************
  2500 ;; Defined at:
  2501 ;;		line 265 in file "main.c"
  2502 ;; Parameters:    Size  Location     Type
  2503 ;;  car_id          2   87[BANK0 ] int 
  2504 ;;  fee             2   89[BANK0 ] int 
  2505 ;; Auto vars:     Size  Location     Type
  2506 ;;  i               1  104[BANK0 ] unsigned char 
  2507 ;;  response_buf   12   92[BANK0 ] unsigned char [12]
  2508 ;; Return value:  Size  Location     Type
  2509 ;;                  1    wreg      void 
  2510 ;; Registers used:
  2511 ;;		wreg, fsr1l, fsr1h, fsr2l, fsr2h, status,2, status,0, tblptrl, tblptrh, tblptru, prodl, prodh, cstack
  2512 ;; Tracked objects:
  2513 ;;		On entry : 0/0
  2514 ;;		On exit  : 0/0
  2515 ;;		Unchanged: 0/0
  2516 ;; Data sizes:     COMRAM   BANK0   BANK1   BANK2   BANK3   BANK4   BANK5   BANK6   BANK7   BANK8   BANK9  BANK10  BANK1
      +1  BANK12  BANK13  BANK14  BANK15
  2517 ;;      Params:         0       4       0       0       0       0       0       0       0       0       0       0       
      +0       0       0       0       0
  2518 ;;      Locals:         0      13       0       0       0       0       0       0       0       0       0       0       
      +0       0       0       0       0
  2519 ;;      Temps:          0       1       0       0       0       0       0       0       0       0       0       0       
      +0       0       0       0       0
  2520 ;;      Totals:         0      18       0       0       0       0       0       0       0       0       0       0       
      +0       0       0       0       0
  2521 ;;Total ram usage:       18 bytes
  2522 ;; Hardware stack levels used:    1
  2523 ;; Hardware stack levels required when called:   11
  2524 ;; This function calls:
  2525 ;;		_buf_push
  2526 ;;		_disable_rxtx
  2527 ;;		_enable_rxtx
  2528 ;;		_sprintf
  2529 ;; This function is called by:
  2530 ;;		_handle_exit
  2531 ;; This function uses a non-reentrant model
  2532 ;;
  2533                           
  2534                           	psect	text7
  2535  002C38                     __ptext7:
  2536                           	callstack 0
  2537  002C38                     _push_park_fee_rsp:
  2538                           	callstack 17
  2539  002C38                     
  2540                           ;main.c: 266:     TMR0H = 0x3c;;main.c: 267:     TMR0L = 0xaf;
  2541  002C38  0EBC               	movlw	low push_park_fee_rsp@response_buf
  2542  002C3A  0100               	movlb	0	; () banked
  2543  002C3C  6FA3               	movwf	sprintf@s& (0+255),b
  2544  002C3E  0E00               	movlw	high push_park_fee_rsp@response_buf
  2545  002C40  6FA4               	movwf	(sprintf@s+1)& (0+255),b
  2546  002C42  0E1F               	movlw	low STR_3
  2547  002C44  6FA5               	movwf	sprintf@fmt& (0+255),b
  2548  002C46  0E10               	movlw	high STR_3
  2549  002C48  6FA6               	movwf	(sprintf@fmt+1)& (0+255),b
  2550  002C4A  C0B7  F0A7         	movff	push_park_fee_rsp@car_id,?_sprintf+4
  2551  002C4E  C0B8  F0A8         	movff	push_park_fee_rsp@car_id+1,?_sprintf+5
  2552  002C52  C0B9  F0A9         	movff	push_park_fee_rsp@fee,?_sprintf+6
  2553  002C56  C0BA  F0AA         	movff	push_park_fee_rsp@fee+1,?_sprintf+7
  2554  002C5A  EC50  F017         	call	_sprintf	;wreg free
  2555  002C5E                     
  2556                           ;main.c: 269:     TRISJ = 0x00;
  2557  002C5E  0E00               	movlw	0
  2558  002C60  0100               	movlb	0	; () banked
  2559  002C62  6FC8               	movwf	push_park_fee_rsp@i& (0+255),b
  2560  002C64                     l3589:
  2561                           
  2562                           ; BSR set to: 0
  2563                           ;main.c: 270:     PORTH = 0x00;
  2564  002C64  ECD3  F018         	call	_disable_rxtx	;wreg free
  2565  002C68                     
  2566                           ;main.c: 271:     PORTJ = 0x00;
  2567  002C68  0EBC               	movlw	low push_park_fee_rsp@response_buf
  2568  002C6A  0100               	movlb	0	; () banked
  2569  002C6C  25C8               	addwf	push_park_fee_rsp@i& (0+255),w,b
  2570  002C6E  6ED9               	movwf	fsr2l,c
  2571  002C70  6ADA               	clrf	fsr2h,c
  2572  002C72  0E00               	movlw	high push_park_fee_rsp@response_buf
  2573  002C74  22DA               	addwfc	fsr2h,f,c
  2574  002C76  50DF               	movf	indf2,w,c
  2575  002C78  6FBB               	movwf	??_push_park_fee_rsp& (0+255),b
  2576  002C7A  51BB               	movf	??_push_park_fee_rsp& (0+255),w,b
  2577  002C7C  6E18               	movwf	buf_push@v^0,c
  2578  002C7E  6A19               	clrf	(buf_push@v+1)^0,c
  2579  002C80  0E01               	movlw	1
  2580  002C82  6E1A               	movwf	buf_push@buf^0,c
  2581  002C84  0E02               	movlw	2
  2582  002C86  6E1C               	movwf	(buf_push@size+1)^0,c
  2583  002C88  0E00               	movlw	0
  2584  002C8A  6E1B               	movwf	buf_push@size^0,c
  2585  002C8C  EC1A  F012         	call	_buf_push	;wreg free
  2586  002C90                     
  2587                           ;main.c: 272: }
  2588  002C90  ECD0  F018         	call	_enable_rxtx	;wreg free
  2589  002C94                     
  2590                           ;main.c: 273: 
  2591  002C94  0100               	movlb	0	; () banked
  2592  002C96  2BC8               	incf	push_park_fee_rsp@i& (0+255),f,b
  2593  002C98                     
  2594                           ; BSR set to: 0
  2595  002C98  0E0A               	movlw	10
  2596  002C9A  65C8               	cpfsgt	push_park_fee_rsp@i& (0+255),b
  2597  002C9C  EF52  F016         	goto	u3341
  2598  002CA0  EF54  F016         	goto	u3340
  2599  002CA4                     u3341:
  2600  002CA4  EF32  F016         	goto	l3589
  2601  002CA8                     u3340:
  2602  002CA8                     
  2603                           ; BSR set to: 0
  2604  002CA8  0012               	return		;funcret
  2605  002CAA                     __end_of_push_park_fee_rsp:
  2606                           	callstack 0
  2607                           
  2608 ;; *************** function _handle_park *****************
  2609 ;; Defined at:
  2610 ;;		line 318 in file "main.c"
  2611 ;; Parameters:    Size  Location     Type
  2612 ;;  car_id          2  119[BANK0 ] int 
  2613 ;; Auto vars:     Size  Location     Type
  2614 ;;		None
  2615 ;; Return value:  Size  Location     Type
  2616 ;;                  1    wreg      void 
  2617 ;; Registers used:
  2618 ;;		wreg, fsr1l, fsr1h, fsr2l, fsr2h, status,2, status,0, tblptrl, tblptrh, tblptru, prodl, prodh, cstack
  2619 ;; Tracked objects:
  2620 ;;		On entry : 0/0
  2621 ;;		On exit  : 0/0
  2622 ;;		Unchanged: 0/0
  2623 ;; Data sizes:     COMRAM   BANK0   BANK1   BANK2   BANK3   BANK4   BANK5   BANK6   BANK7   BANK8   BANK9  BANK10  BANK1
      +1  BANK12  BANK13  BANK14  BANK15
  2624 ;;      Params:         0       2       0       0       0       0       0       0       0       0       0       0       
      +0       0       0       0       0
  2625 ;;      Locals:         0       0       0       0       0       0       0       0       0       0       0       0       
      +0       0       0       0       0
  2626 ;;      Temps:          0       0       0       0       0       0       0       0       0       0       0       0       
      +0       0       0       0       0
  2627 ;;      Totals:         0       2       0       0       0       0       0       0       0       0       0       0       
      +0       0       0       0       0
  2628 ;;Total ram usage:        2 bytes
  2629 ;; Hardware stack levels used:    1
  2630 ;; Hardware stack levels required when called:   13
  2631 ;; This function calls:
  2632 ;;		_buf_push
  2633 ;;		_disable_rxtx
  2634 ;;		_enable_rxtx
  2635 ;;		_try_park
  2636 ;; This function is called by:
  2637 ;;		_handle_exit
  2638 ;;		_parse_sim_messages
  2639 ;; This function uses a non-reentrant model
  2640 ;;
  2641                           
  2642                           	psect	text8
  2643  003010                     __ptext8:
  2644                           	callstack 0
  2645  003010                     _handle_park:
  2646                           	callstack 16
  2647  003010                     
  2648                           ;main.c: 319:             sim_msg_array[1] == 'E' &&
  2649  003010  C0D7  F0C9         	movff	handle_park@car_id,try_park@car_id
  2650  003014  C0D8  F0CA         	movff	handle_park@car_id+1,try_park@car_id+1
  2651  003018  EC3D  F00B         	call	_try_park	;wreg free
  2652  00301C  0900               	iorlw	0
  2653  00301E  A4D8               	btfss	status,2,c
  2654  003020  EF14  F018         	goto	u3361
  2655  003024  EF16  F018         	goto	u3360
  2656  003028                     u3361:
  2657  003028  EF26  F018         	goto	l243
  2658  00302C                     u3360:
  2659  00302C                     
  2660                           ;main.c: 320:             sim_msg_array[2] == 'X' &&
  2661  00302C  ECD3  F018         	call	_disable_rxtx	;wreg free
  2662  003030                     
  2663                           ;main.c: 321:             sim_msg_array[3] == 'T'){
  2664  003030  C0D7  F018         	movff	handle_park@car_id,buf_push@v
  2665  003034  C0D8  F019         	movff	handle_park@car_id+1,buf_push@v+1
  2666  003038  0E02               	movlw	2
  2667  00303A  6E1A               	movwf	buf_push@buf^0,c
  2668  00303C  0E00               	movlw	0
  2669  00303E  6E1C               	movwf	(buf_push@size+1)^0,c
  2670  003040  0E10               	movlw	16
  2671  003042  6E1B               	movwf	buf_push@size^0,c
  2672  003044  EC1A  F012         	call	_buf_push	;wreg free
  2673  003048                     
  2674                           ;main.c: 322: 
  2675  003048  ECD0  F018         	call	_enable_rxtx	;wreg free
  2676  00304C                     l243:
  2677  00304C  0012               	return		;funcret
  2678  00304E                     __end_of_handle_park:
  2679                           	callstack 0
  2680                           
  2681 ;; *************** function _try_park *****************
  2682 ;; Defined at:
  2683 ;;		line 286 in file "main.c"
  2684 ;; Parameters:    Size  Location     Type
  2685 ;;  car_id          2  105[BANK0 ] int 
  2686 ;; Auto vars:     Size  Location     Type
  2687 ;;  j               1  118[BANK0 ] unsigned char 
  2688 ;;  i               1  117[BANK0 ] unsigned char 
  2689 ;;  spot            4  113[BANK0 ] int [2]
  2690 ;; Return value:  Size  Location     Type
  2691 ;;                  1    wreg      unsigned char 
  2692 ;; Registers used:
  2693 ;;		wreg, fsr1l, fsr1h, fsr2l, fsr2h, status,2, status,0, tblptrl, tblptrh, tblptru, prodl, prodh, cstack
  2694 ;; Tracked objects:
  2695 ;;		On entry : 0/0
  2696 ;;		On exit  : 0/0
  2697 ;;		Unchanged: 0/0
  2698 ;; Data sizes:     COMRAM   BANK0   BANK1   BANK2   BANK3   BANK4   BANK5   BANK6   BANK7   BANK8   BANK9  BANK10  BANK1
      +1  BANK12  BANK13  BANK14  BANK15
  2699 ;;      Params:         0       2       0       0       0       0       0       0       0       0       0       0       
      +0       0       0       0       0
  2700 ;;      Locals:         0       6       0       0       0       0       0       0       0       0       0       0       
      +0       0       0       0       0
  2701 ;;      Temps:          0       6       0       0       0       0       0       0       0       0       0       0       
      +0       0       0       0       0
  2702 ;;      Totals:         0      14       0       0       0       0       0       0       0       0       0       0       
      +0       0       0       0       0
  2703 ;;Total ram usage:       14 bytes
  2704 ;; Hardware stack levels used:    1
  2705 ;; Hardware stack levels required when called:   12
  2706 ;; This function calls:
  2707 ;;		___wmul
  2708 ;;		_push_park_rsp
  2709 ;; This function is called by:
  2710 ;;		_handle_park
  2711 ;; This function uses a non-reentrant model
  2712 ;;
  2713                           
  2714                           	psect	text9
  2715  00167A                     __ptext9:
  2716                           	callstack 0
  2717  00167A                     _try_park:
  2718                           	callstack 16
  2719  00167A                     
  2720                           ;main.c: 287: 
  2721  00167A  C0F8  F0D1         	movff	try_park@F4992,try_park@spot
  2722  00167E  C0F9  F0D2         	movff	try_park@F4992+1,try_park@spot+1
  2723  001682  C0FA  F0D3         	movff	try_park@F4992+2,try_park@spot+2
  2724  001686  C0FB  F0D4         	movff	try_park@F4992+3,try_park@spot+3
  2725  00168A                     
  2726                           ;main.c: 289: void parse_sim_messages(){
  2727  00168A  0E00               	movlw	0
  2728  00168C  0100               	movlb	0	; () banked
  2729  00168E  6FD5               	movwf	try_park@i& (0+255),b
  2730  001690                     l3527:
  2731                           
  2732                           ; BSR set to: 0
  2733                           ;main.c: 290:     int car_id = 0;
  2734  001690  0E00               	movlw	0
  2735  001692  6FD6               	movwf	try_park@j& (0+255),b
  2736  001694                     l3533:
  2737                           
  2738                           ; BSR set to: 0
  2739                           ;main.c: 291:     char level;
  2740  001694  51D6               	movf	try_park@j& (0+255),w,b
  2741  001696  0D02               	mullw	2
  2742  001698  CFF3 F0CB          	movff	prodl,??_try_park
  2743  00169C  CFF4 F0CC          	movff	prodh,??_try_park+1
  2744  0016A0  51D5               	movf	try_park@i& (0+255),w,b
  2745  0016A2  0D14               	mullw	20
  2746  0016A4  0E2C               	movlw	low _reserved_slots
  2747  0016A6  6FCD               	movwf	(??_try_park+2)& (0+255),b
  2748  0016A8  0E01               	movlw	high _reserved_slots
  2749  0016AA  6FCE               	movwf	(??_try_park+3)& (0+255),b
  2750  0016AC  50F3               	movf	243,w,c
  2751  0016AE  27CD               	addwf	(??_try_park+2)& (0+255),f,b
  2752  0016B0  50F4               	movf	244,w,c
  2753  0016B2  23CE               	addwfc	(??_try_park+3)& (0+255),f,b
  2754  0016B4  51CB               	movf	??_try_park& (0+255),w,b
  2755  0016B6  25CD               	addwf	(??_try_park+2)& (0+255),w,b
  2756  0016B8  6ED9               	movwf	fsr2l,c
  2757  0016BA  51CC               	movf	(??_try_park+1)& (0+255),w,b
  2758  0016BC  21CE               	addwfc	(??_try_park+3)& (0+255),w,b
  2759  0016BE  6EDA               	movwf	fsr2h,c
  2760  0016C0  51C9               	movf	try_park@car_id& (0+255),w,b
  2761  0016C2  18DE               	xorwf	postinc2,w,c
  2762  0016C4  E107               	bnz	u3271
  2763  0016C6  51CA               	movf	(try_park@car_id+1)& (0+255),w,b
  2764  0016C8  18DE               	xorwf	postinc2,w,c
  2765  0016CA  A4D8               	btfss	status,2,c
  2766  0016CC  EF6A  F00B         	goto	u3271
  2767  0016D0  EF6C  F00B         	goto	u3270
  2768  0016D4                     u3271:
  2769  0016D4  EFB5  F00B         	goto	l3547
  2770  0016D8                     u3270:
  2771  0016D8                     
  2772                           ; BSR set to: 0
  2773  0016D8  51D6               	movf	try_park@j& (0+255),w,b
  2774  0016DA  0D02               	mullw	2
  2775  0016DC  CFF3 F0CB          	movff	prodl,??_try_park
  2776  0016E0  CFF4 F0CC          	movff	prodh,??_try_park+1
  2777  0016E4  51D5               	movf	try_park@i& (0+255),w,b
  2778  0016E6  0D14               	mullw	20
  2779  0016E8  0E7C               	movlw	low _park_slots
  2780  0016EA  6FCD               	movwf	(??_try_park+2)& (0+255),b
  2781  0016EC  0E01               	movlw	high _park_slots
  2782  0016EE  6FCE               	movwf	(??_try_park+3)& (0+255),b
  2783  0016F0  50F3               	movf	243,w,c
  2784  0016F2  27CD               	addwf	(??_try_park+2)& (0+255),f,b
  2785  0016F4  50F4               	movf	244,w,c
  2786  0016F6  23CE               	addwfc	(??_try_park+3)& (0+255),f,b
  2787  0016F8  51CB               	movf	??_try_park& (0+255),w,b
  2788  0016FA  25CD               	addwf	(??_try_park+2)& (0+255),w,b
  2789  0016FC  6ED9               	movwf	fsr2l,c
  2790  0016FE  51CC               	movf	(??_try_park+1)& (0+255),w,b
  2791  001700  21CE               	addwfc	(??_try_park+3)& (0+255),w,b
  2792  001702  6EDA               	movwf	fsr2h,c
  2793  001704  28DE               	incf	postinc2,w,c
  2794  001706  E106               	bnz	u3281
  2795  001708  28DE               	incf	postinc2,w,c
  2796  00170A  A4D8               	btfss	status,2,c
  2797  00170C  EF8A  F00B         	goto	u3281
  2798  001710  EF8C  F00B         	goto	u3280
  2799  001714                     u3281:
  2800  001714  EFB5  F00B         	goto	l3547
  2801  001718                     u3280:
  2802  001718                     
  2803                           ; BSR set to: 0
  2804                           ;main.c: 292:     int spot;
  2805  001718  51D6               	movf	try_park@j& (0+255),w,b
  2806  00171A  0D02               	mullw	2
  2807  00171C  CFF3 F0CB          	movff	prodl,??_try_park
  2808  001720  CFF4 F0CC          	movff	prodh,??_try_park+1
  2809  001724  51D5               	movf	try_park@i& (0+255),w,b
  2810  001726  0D14               	mullw	20
  2811  001728  0E7C               	movlw	low _park_slots
  2812  00172A  6FCD               	movwf	(??_try_park+2)& (0+255),b
  2813  00172C  0E01               	movlw	high _park_slots
  2814  00172E  6FCE               	movwf	(??_try_park+3)& (0+255),b
  2815  001730  50F3               	movf	243,w,c
  2816  001732  27CD               	addwf	(??_try_park+2)& (0+255),f,b
  2817  001734  50F4               	movf	244,w,c
  2818  001736  23CE               	addwfc	(??_try_park+3)& (0+255),f,b
  2819  001738  51CB               	movf	??_try_park& (0+255),w,b
  2820  00173A  25CD               	addwf	(??_try_park+2)& (0+255),w,b
  2821  00173C  6ED9               	movwf	fsr2l,c
  2822  00173E  51CC               	movf	(??_try_park+1)& (0+255),w,b
  2823  001740  21CE               	addwfc	(??_try_park+3)& (0+255),w,b
  2824  001742  6EDA               	movwf	fsr2h,c
  2825  001744  C0C9  FFDE         	movff	try_park@car_id,postinc2
  2826  001748  C0CA  FFDD         	movff	try_park@car_id+1,postdec2
  2827  00174C                     
  2828                           ; BSR set to: 0
  2829                           ;main.c: 293: 
  2830  00174C  07FE               	decf	_empty_space& (0+255),f,b
  2831  00174E  A0D8               	btfss	status,0,c
  2832  001750  07FF               	decf	(_empty_space+1)& (0+255),f,b
  2833  001752                     
  2834                           ; BSR set to: 0
  2835                           ;main.c: 294: 
  2836  001752  C0D6  F0B7         	movff	try_park@j,push_park_rsp@spot
  2837  001756  C0C9  F0B8         	movff	try_park@car_id,push_park_rsp@car_id
  2838  00175A  C0CA  F0B9         	movff	try_park@car_id+1,push_park_rsp@car_id+1
  2839  00175E  51D5               	movf	try_park@i& (0+255),w,b
  2840  001760  EC5E  F015         	call	_push_park_rsp
  2841  001764                     
  2842                           ;main.c: 295:     if(sim_msg_array[0] != '$' || sim_msg_array[sim_count-1] != '#'){
  2843  001764  0E02               	movlw	2
  2844  001766  EF67  F00C         	goto	l236
  2845  00176A                     l3547:
  2846                           
  2847                           ; BSR set to: 0
  2848                           ;main.c: 299:     if (sim_msg_array[1] == 'G' && sim_msg_array[2] == 'O') {
  2849  00176A  51D6               	movf	try_park@j& (0+255),w,b
  2850  00176C  0D02               	mullw	2
  2851  00176E  CFF3 F0CB          	movff	prodl,??_try_park
  2852  001772  CFF4 F0CC          	movff	prodh,??_try_park+1
  2853  001776  51D5               	movf	try_park@i& (0+255),w,b
  2854  001778  0D14               	mullw	20
  2855  00177A  0E2C               	movlw	low _reserved_slots
  2856  00177C  6FCD               	movwf	(??_try_park+2)& (0+255),b
  2857  00177E  0E01               	movlw	high _reserved_slots
  2858  001780  6FCE               	movwf	(??_try_park+3)& (0+255),b
  2859  001782  50F3               	movf	243,w,c
  2860  001784  27CD               	addwf	(??_try_park+2)& (0+255),f,b
  2861  001786  50F4               	movf	244,w,c
  2862  001788  23CE               	addwfc	(??_try_park+3)& (0+255),f,b
  2863  00178A  51CB               	movf	??_try_park& (0+255),w,b
  2864  00178C  25CD               	addwf	(??_try_park+2)& (0+255),w,b
  2865  00178E  6ED9               	movwf	fsr2l,c
  2866  001790  51CC               	movf	(??_try_park+1)& (0+255),w,b
  2867  001792  21CE               	addwfc	(??_try_park+3)& (0+255),w,b
  2868  001794  6EDA               	movwf	fsr2h,c
  2869  001796  28DE               	incf	postinc2,w,c
  2870  001798  E106               	bnz	u3291
  2871  00179A  28DE               	incf	postinc2,w,c
  2872  00179C  A4D8               	btfss	status,2,c
  2873  00179E  EFD3  F00B         	goto	u3291
  2874  0017A2  EFD5  F00B         	goto	u3290
  2875  0017A6                     u3291:
  2876  0017A6  EFFB  F00B         	goto	l3553
  2877  0017AA                     u3290:
  2878  0017AA                     
  2879                           ; BSR set to: 0
  2880  0017AA  51D6               	movf	try_park@j& (0+255),w,b
  2881  0017AC  0D02               	mullw	2
  2882  0017AE  CFF3 F0CB          	movff	prodl,??_try_park
  2883  0017B2  CFF4 F0CC          	movff	prodh,??_try_park+1
  2884  0017B6  51D5               	movf	try_park@i& (0+255),w,b
  2885  0017B8  0D14               	mullw	20
  2886  0017BA  0E7C               	movlw	low _park_slots
  2887  0017BC  6FCD               	movwf	(??_try_park+2)& (0+255),b
  2888  0017BE  0E01               	movlw	high _park_slots
  2889  0017C0  6FCE               	movwf	(??_try_park+3)& (0+255),b
  2890  0017C2  50F3               	movf	243,w,c
  2891  0017C4  27CD               	addwf	(??_try_park+2)& (0+255),f,b
  2892  0017C6  50F4               	movf	244,w,c
  2893  0017C8  23CE               	addwfc	(??_try_park+3)& (0+255),f,b
  2894  0017CA  51CB               	movf	??_try_park& (0+255),w,b
  2895  0017CC  25CD               	addwf	(??_try_park+2)& (0+255),w,b
  2896  0017CE  6ED9               	movwf	fsr2l,c
  2897  0017D0  51CC               	movf	(??_try_park+1)& (0+255),w,b
  2898  0017D2  21CE               	addwfc	(??_try_park+3)& (0+255),w,b
  2899  0017D4  6EDA               	movwf	fsr2h,c
  2900  0017D6  28DE               	incf	postinc2,w,c
  2901  0017D8  E106               	bnz	u3301
  2902  0017DA  28DE               	incf	postinc2,w,c
  2903  0017DC  A4D8               	btfss	status,2,c
  2904  0017DE  EFF3  F00B         	goto	u3301
  2905  0017E2  EFF5  F00B         	goto	u3300
  2906  0017E6                     u3301:
  2907  0017E6  EFFB  F00B         	goto	l3553
  2908  0017EA                     u3300:
  2909  0017EA                     
  2910                           ; BSR set to: 0
  2911                           ;main.c: 300:         handle_go();
  2912  0017EA  C0D5  F0D1         	movff	try_park@i,try_park@spot
  2913  0017EE  6BD2               	clrf	(try_park@spot+1)& (0+255),b
  2914                           
  2915                           ;main.c: 301: 
  2916  0017F0  C0D6  F0D3         	movff	try_park@j,try_park@spot+2
  2917  0017F4  6BD4               	clrf	(try_park@spot+3)& (0+255),b
  2918  0017F6                     l3553:
  2919                           
  2920                           ; BSR set to: 0
  2921                           ;main.c: 303:             sim_msg_array[1] == 'E' &&
  2922  0017F6  2BD6               	incf	try_park@j& (0+255),f,b
  2923  0017F8                     
  2924                           ; BSR set to: 0
  2925  0017F8  0E09               	movlw	9
  2926  0017FA  65D6               	cpfsgt	try_park@j& (0+255),b
  2927  0017FC  EF02  F00C         	goto	u3311
  2928  001800  EF04  F00C         	goto	u3310
  2929  001804                     u3311:
  2930  001804  EF4A  F00B         	goto	l3533
  2931  001808                     u3310:
  2932  001808                     
  2933                           ; BSR set to: 0
  2934                           ;main.c: 305:             sim_msg_array[3] == 'D'){
  2935  001808  2BD5               	incf	try_park@i& (0+255),f,b
  2936  00180A                     
  2937                           ; BSR set to: 0
  2938  00180A  0E03               	movlw	3
  2939  00180C  65D5               	cpfsgt	try_park@i& (0+255),b
  2940  00180E  EF0B  F00C         	goto	u3321
  2941  001812  EF0D  F00C         	goto	u3320
  2942  001816                     u3321:
  2943  001816  EF48  F00B         	goto	l3527
  2944  00181A                     u3320:
  2945  00181A                     
  2946                           ; BSR set to: 0
  2947                           ;main.c: 306:         handle_end();
  2948  00181A  29D1               	incf	try_park@spot& (0+255),w,b
  2949  00181C  E108               	bnz	u3330
  2950  00181E  29D2               	incf	(try_park@spot+1)& (0+255),w,b
  2951  001820  B4D8               	btfsc	status,2,c
  2952  001822  EF15  F00C         	goto	u3331
  2953  001826  EF17  F00C         	goto	u3330
  2954  00182A                     u3331:
  2955  00182A  EF66  F00C         	goto	l3577
  2956  00182E                     u3330:
  2957  00182E                     
  2958                           ; BSR set to: 0
  2959                           ;main.c: 307: 
  2960  00182E  07FE               	decf	_empty_space& (0+255),f,b
  2961  001830  A0D8               	btfss	status,0,c
  2962  001832  07FF               	decf	(_empty_space+1)& (0+255),f,b
  2963  001834                     
  2964                           ; BSR set to: 0
  2965                           ;main.c: 308:     } else if (
  2966  001834  C0D3  F0B7         	movff	try_park@spot+2,push_park_rsp@spot
  2967  001838  C0C9  F0B8         	movff	try_park@car_id,push_park_rsp@car_id
  2968  00183C  C0CA  F0B9         	movff	try_park@car_id+1,push_park_rsp@car_id+1
  2969  001840  51D1               	movf	try_park@spot& (0+255),w,b
  2970  001842  EC5E  F015         	call	_push_park_rsp
  2971  001846                     
  2972                           ;main.c: 309:                 sim_msg_array[1] == 'P' &&
  2973  001846  C0D1  F018         	movff	try_park@spot,___wmul@multiplier
  2974  00184A  C0D2  F019         	movff	try_park@spot+1,___wmul@multiplier+1
  2975  00184E  0E00               	movlw	0
  2976  001850  6E1B               	movwf	(___wmul@multiplicand+1)^0,c
  2977  001852  0E14               	movlw	20
  2978  001854  6E1A               	movwf	___wmul@multiplicand^0,c
  2979  001856  EC97  F018         	call	___wmul	;wreg free
  2980  00185A  0E7C               	movlw	low _park_slots
  2981  00185C  0100               	movlb	0	; () banked
  2982  00185E  6FCB               	movwf	??_try_park& (0+255),b
  2983  001860  0E01               	movlw	high _park_slots
  2984  001862  6FCC               	movwf	(??_try_park+1)& (0+255),b
  2985  001864  5018               	movf	?___wmul^0,w,c
  2986  001866  27CB               	addwf	??_try_park& (0+255),f,b
  2987  001868  5019               	movf	(?___wmul+1)^0,w,c
  2988  00186A  23CC               	addwfc	(??_try_park+1)& (0+255),f,b
  2989  00186C  90D8               	bcf	status,0,c
  2990  00186E  35D3               	rlcf	(try_park@spot+2)& (0+255),w,b
  2991  001870  6ED9               	movwf	fsr2l,c
  2992  001872  35D4               	rlcf	(try_park@spot+3)& (0+255),w,b
  2993  001874  6EDA               	movwf	fsr2h,c
  2994  001876  51CB               	movf	??_try_park& (0+255),w,b
  2995  001878  26D9               	addwf	fsr2l,f,c
  2996  00187A  51CC               	movf	(??_try_park+1)& (0+255),w,b
  2997  00187C  22DA               	addwfc	fsr2h,f,c
  2998  00187E  C0C9  FFDE         	movff	try_park@car_id,postinc2
  2999  001882  C0CA  FFDD         	movff	try_park@car_id+1,postdec2
  3000  001886                     
  3001                           ; BSR set to: 0
  3002                           ;main.c: 310:                 sim_msg_array[2] == 'R' &&
  3003  001886  C0D1  F018         	movff	try_park@spot,___wmul@multiplier
  3004  00188A  C0D2  F019         	movff	try_park@spot+1,___wmul@multiplier+1
  3005  00188E  0E00               	movlw	0
  3006  001890  6E1B               	movwf	(___wmul@multiplicand+1)^0,c
  3007  001892  0E14               	movlw	20
  3008  001894  6E1A               	movwf	___wmul@multiplicand^0,c
  3009  001896  EC97  F018         	call	___wmul	;wreg free
  3010  00189A  0E80               	movlw	low _park_fee_counter
  3011  00189C  0100               	movlb	0	; () banked
  3012  00189E  6FCB               	movwf	??_try_park& (0+255),b
  3013  0018A0  0E02               	movlw	high _park_fee_counter
  3014  0018A2  6FCC               	movwf	(??_try_park+1)& (0+255),b
  3015  0018A4  5018               	movf	?___wmul^0,w,c
  3016  0018A6  27CB               	addwf	??_try_park& (0+255),f,b
  3017  0018A8  5019               	movf	(?___wmul+1)^0,w,c
  3018  0018AA  23CC               	addwfc	(??_try_park+1)& (0+255),f,b
  3019  0018AC  90D8               	bcf	status,0,c
  3020  0018AE  35D3               	rlcf	(try_park@spot+2)& (0+255),w,b
  3021  0018B0  6ED9               	movwf	fsr2l,c
  3022  0018B2  35D4               	rlcf	(try_park@spot+3)& (0+255),w,b
  3023  0018B4  6EDA               	movwf	fsr2h,c
  3024  0018B6  51CB               	movf	??_try_park& (0+255),w,b
  3025  0018B8  26D9               	addwf	fsr2l,f,c
  3026  0018BA  51CC               	movf	(??_try_park+1)& (0+255),w,b
  3027  0018BC  22DA               	addwfc	fsr2h,f,c
  3028  0018BE  0E00               	movlw	0
  3029  0018C0  6EDE               	movwf	postinc2,c
  3030  0018C2  0E00               	movlw	0
  3031  0018C4  6EDD               	movwf	postdec2,c
  3032  0018C6                     
  3033                           ; BSR set to: 0
  3034                           ;main.c: 311:                 sim_msg_array[3] == 'K'){
  3035  0018C6  0E01               	movlw	1
  3036  0018C8  EF67  F00C         	goto	l236
  3037  0018CC                     l3577:
  3038                           
  3039                           ; BSR set to: 0
  3040                           ;main.c: 313:         car_id = (sim_msg_array[4]-'0')*100
  3041  0018CC  0E00               	movlw	0
  3042  0018CE                     l236:
  3043  0018CE  0012               	return		;funcret
  3044  0018D0                     __end_of_try_park:
  3045                           	callstack 0
  3046                           
  3047 ;; *************** function _push_park_rsp *****************
  3048 ;; Defined at:
  3049 ;;		line 254 in file "main.c"
  3050 ;; Parameters:    Size  Location     Type
  3051 ;;  level           1    wreg     unsigned char 
  3052 ;;  spot            1   87[BANK0 ] unsigned char 
  3053 ;;  car_id          2   88[BANK0 ] int 
  3054 ;; Auto vars:     Size  Location     Type
  3055 ;;  level           1  103[BANK0 ] unsigned char 
  3056 ;;  i               1  104[BANK0 ] unsigned char 
  3057 ;;  response_buf   12   91[BANK0 ] unsigned char [12]
  3058 ;; Return value:  Size  Location     Type
  3059 ;;                  1    wreg      void 
  3060 ;; Registers used:
  3061 ;;		wreg, fsr1l, fsr1h, fsr2l, fsr2h, status,2, status,0, tblptrl, tblptrh, tblptru, prodl, prodh, cstack
  3062 ;; Tracked objects:
  3063 ;;		On entry : 0/0
  3064 ;;		On exit  : 0/0
  3065 ;;		Unchanged: 0/0
  3066 ;; Data sizes:     COMRAM   BANK0   BANK1   BANK2   BANK3   BANK4   BANK5   BANK6   BANK7   BANK8   BANK9  BANK10  BANK1
      +1  BANK12  BANK13  BANK14  BANK15
  3067 ;;      Params:         0       3       0       0       0       0       0       0       0       0       0       0       
      +0       0       0       0       0
  3068 ;;      Locals:         0      14       0       0       0       0       0       0       0       0       0       0       
      +0       0       0       0       0
  3069 ;;      Temps:          0       1       0       0       0       0       0       0       0       0       0       0       
      +0       0       0       0       0
  3070 ;;      Totals:         0      18       0       0       0       0       0       0       0       0       0       0       
      +0       0       0       0       0
  3071 ;;Total ram usage:       18 bytes
  3072 ;; Hardware stack levels used:    1
  3073 ;; Hardware stack levels required when called:   11
  3074 ;; This function calls:
  3075 ;;		_buf_push
  3076 ;;		_disable_rxtx
  3077 ;;		_enable_rxtx
  3078 ;;		_sprintf
  3079 ;; This function is called by:
  3080 ;;		_try_park
  3081 ;; This function uses a non-reentrant model
  3082 ;;
  3083                           
  3084                           	psect	text10
  3085  002ABC                     __ptext10:
  3086                           	callstack 0
  3087  002ABC                     _push_park_rsp:
  3088                           	callstack 16
  3089                           
  3090                           ;incstack = 0
  3091                           ;push_park_rsp@level stored from wreg
  3092  002ABC  0100               	movlb	0	; () banked
  3093  002ABE  6FC7               	movwf	push_park_rsp@level& (0+255),b
  3094  002AC0                     
  3095                           ;main.c: 255:         sub_fee = 50;;main.c: 256:         reserved_slots[level][spot] = c
      +                          ar_id;
  3096  002AC0  0EBB               	movlw	low push_park_rsp@response_buf
  3097  002AC2  0100               	movlb	0	; () banked
  3098  002AC4  6FA3               	movwf	sprintf@s& (0+255),b
  3099  002AC6  0E00               	movlw	high push_park_rsp@response_buf
  3100  002AC8  6FA4               	movwf	(sprintf@s+1)& (0+255),b
  3101  002ACA  0E01               	movlw	low STR_2
  3102  002ACC  6FA5               	movwf	sprintf@fmt& (0+255),b
  3103  002ACE  0E10               	movlw	high STR_2
  3104  002AD0  6FA6               	movwf	(sprintf@fmt+1)& (0+255),b
  3105  002AD2  C0B8  F0A7         	movff	push_park_rsp@car_id,?_sprintf+4
  3106  002AD6  C0B9  F0A8         	movff	push_park_rsp@car_id+1,?_sprintf+5
  3107  002ADA  0E41               	movlw	65
  3108  002ADC  25C7               	addwf	push_park_rsp@level& (0+255),w,b
  3109  002ADE  6FA9               	movwf	(?_sprintf+6)& (0+255),b
  3110  002AE0  6BAA               	clrf	(?_sprintf+7)& (0+255),b
  3111  002AE2  0E00               	movlw	0
  3112  002AE4  23AA               	addwfc	(?_sprintf+7)& (0+255),f,b
  3113  002AE6  0E01               	movlw	1
  3114  002AE8  25B7               	addwf	push_park_rsp@spot& (0+255),w,b
  3115  002AEA  6FAB               	movwf	(?_sprintf+8)& (0+255),b
  3116  002AEC  6BAC               	clrf	(?_sprintf+9)& (0+255),b
  3117  002AEE  0E00               	movlw	0
  3118  002AF0  23AC               	addwfc	(?_sprintf+9)& (0+255),f,b
  3119  002AF2  EC50  F017         	call	_sprintf	;wreg free
  3120  002AF6                     
  3121                           ;main.c: 258:     total_money+=sub_fee;
  3122  002AF6  0E00               	movlw	0
  3123  002AF8  0100               	movlb	0	; () banked
  3124  002AFA  6FC8               	movwf	push_park_rsp@i& (0+255),b
  3125  002AFC                     l3509:
  3126                           
  3127                           ; BSR set to: 0
  3128                           ;main.c: 259:     push_sub_rsp(car_id, sub_fee);
  3129  002AFC  ECD3  F018         	call	_disable_rxtx	;wreg free
  3130  002B00                     
  3131                           ;main.c: 260: 
  3132  002B00  0EBB               	movlw	low push_park_rsp@response_buf
  3133  002B02  0100               	movlb	0	; () banked
  3134  002B04  25C8               	addwf	push_park_rsp@i& (0+255),w,b
  3135  002B06  6ED9               	movwf	fsr2l,c
  3136  002B08  6ADA               	clrf	fsr2h,c
  3137  002B0A  0E00               	movlw	high push_park_rsp@response_buf
  3138  002B0C  22DA               	addwfc	fsr2h,f,c
  3139  002B0E  50DF               	movf	indf2,w,c
  3140  002B10  6FBA               	movwf	??_push_park_rsp& (0+255),b
  3141  002B12  51BA               	movf	??_push_park_rsp& (0+255),w,b
  3142  002B14  6E18               	movwf	buf_push@v^0,c
  3143  002B16  6A19               	clrf	(buf_push@v+1)^0,c
  3144  002B18  0E01               	movlw	1
  3145  002B1A  6E1A               	movwf	buf_push@buf^0,c
  3146  002B1C  0E02               	movlw	2
  3147  002B1E  6E1C               	movwf	(buf_push@size+1)^0,c
  3148  002B20  0E00               	movlw	0
  3149  002B22  6E1B               	movwf	buf_push@size^0,c
  3150  002B24  EC1A  F012         	call	_buf_push	;wreg free
  3151  002B28                     
  3152                           ;main.c: 261:     return;
  3153  002B28  ECD0  F018         	call	_enable_rxtx	;wreg free
  3154  002B2C                     
  3155                           ;main.c: 262: }
  3156  002B2C  0100               	movlb	0	; () banked
  3157  002B2E  2BC8               	incf	push_park_rsp@i& (0+255),f,b
  3158  002B30                     
  3159                           ; BSR set to: 0
  3160  002B30  0E0A               	movlw	10
  3161  002B32  65C8               	cpfsgt	push_park_rsp@i& (0+255),b
  3162  002B34  EF9E  F015         	goto	u3261
  3163  002B38  EFA0  F015         	goto	u3260
  3164  002B3C                     u3261:
  3165  002B3C  EF7E  F015         	goto	l3509
  3166  002B40                     u3260:
  3167  002B40                     
  3168                           ; BSR set to: 0
  3169  002B40  0012               	return		;funcret
  3170  002B42                     __end_of_push_park_rsp:
  3171                           	callstack 0
  3172                           
  3173 ;; *************** function _sprintf *****************
  3174 ;; Defined at:
  3175 ;;		line 9 in file "/Applications/microchip/xc8/v2.30/pic/sources/c99/common/nf_sprintf.c"
  3176 ;; Parameters:    Size  Location     Type
  3177 ;;  s               2   67[BANK0 ] PTR unsigned char 
  3178 ;;		 -> push_sub_rsp@response_buf(11), push_park_fee_rsp@response_buf(12), push_park_rsp@response_buf(12), push_emp_rsp@
      +emp_response_buf(8), 
  3179 ;;  fmt             2   69[BANK0 ] PTR const unsigned char 
  3180 ;;		 -> STR_4(14), STR_3(14), STR_2(16), STR_1(10), 
  3181 ;; Auto vars:     Size  Location     Type
  3182 ;;  f               6   81[BANK0 ] struct _IO_FILE
  3183 ;;  ap              2   79[BANK0 ] PTR void [1]
  3184 ;;		 -> ?_sprintf(2), 
  3185 ;;  ret             2    0        int 
  3186 ;; Return value:  Size  Location     Type
  3187 ;;                  2   67[BANK0 ] int 
  3188 ;; Registers used:
  3189 ;;		wreg, fsr1l, fsr1h, fsr2l, fsr2h, status,2, status,0, tblptrl, tblptrh, tblptru, prodl, prodh, cstack
  3190 ;; Tracked objects:
  3191 ;;		On entry : 0/0
  3192 ;;		On exit  : 0/0
  3193 ;;		Unchanged: 0/0
  3194 ;; Data sizes:     COMRAM   BANK0   BANK1   BANK2   BANK3   BANK4   BANK5   BANK6   BANK7   BANK8   BANK9  BANK10  BANK1
      +1  BANK12  BANK13  BANK14  BANK15
  3195 ;;      Params:         0      10       0       0       0       0       0       0       0       0       0       0       
      +0       0       0       0       0
  3196 ;;      Locals:         0      10       0       0       0       0       0       0       0       0       0       0       
      +0       0       0       0       0
  3197 ;;      Temps:          0       0       0       0       0       0       0       0       0       0       0       0       
      +0       0       0       0       0
  3198 ;;      Totals:         0      20       0       0       0       0       0       0       0       0       0       0       
      +0       0       0       0       0
  3199 ;;Total ram usage:       20 bytes
  3200 ;; Hardware stack levels used:    1
  3201 ;; Hardware stack levels required when called:   10
  3202 ;; This function calls:
  3203 ;;		_vfprintf
  3204 ;; This function is called by:
  3205 ;;		_push_emp_rsp
  3206 ;;		_push_park_rsp
  3207 ;;		_push_park_fee_rsp
  3208 ;;		_push_sub_rsp
  3209 ;; This function uses a non-reentrant model
  3210 ;;
  3211                           
  3212                           	psect	text11
  3213  002EA0                     __ptext11:
  3214                           	callstack 0
  3215  002EA0                     _sprintf:
  3216                           	callstack 19
  3217  002EA0  0EA7               	movlw	low (?_sprintf+4)
  3218  002EA2  0100               	movlb	0	; () banked
  3219  002EA4  6FAF               	movwf	sprintf@ap& (0+255),b
  3220  002EA6  0E00               	movlw	high (?_sprintf+4)
  3221  002EA8  6FB0               	movwf	(sprintf@ap+1)& (0+255),b
  3222  002EAA  C0A3  F0B1         	movff	sprintf@s,sprintf@f
  3223  002EAE  C0A4  F0B2         	movff	sprintf@s+1,sprintf@f+1
  3224  002EB2                     
  3225                           ; BSR set to: 0
  3226  002EB2  0E00               	movlw	0
  3227  002EB4  6FB4               	movwf	(sprintf@f+3)& (0+255),b
  3228  002EB6  0E00               	movlw	0
  3229  002EB8  6FB3               	movwf	(sprintf@f+2)& (0+255),b
  3230  002EBA                     
  3231                           ; BSR set to: 0
  3232  002EBA  0E00               	movlw	0
  3233  002EBC  6FB6               	movwf	(sprintf@f+5)& (0+255),b
  3234  002EBE  0E00               	movlw	0
  3235  002EC0  6FB5               	movwf	(sprintf@f+4)& (0+255),b
  3236  002EC2                     
  3237                           ; BSR set to: 0
  3238  002EC2  0EB1               	movlw	low sprintf@f
  3239  002EC4  6F9B               	movwf	vfprintf@fp& (0+255),b
  3240  002EC6  0E00               	movlw	high sprintf@f
  3241  002EC8  6F9C               	movwf	(vfprintf@fp+1)& (0+255),b
  3242  002ECA  C0A5  F09D         	movff	sprintf@fmt,vfprintf@fmt
  3243  002ECE  C0A6  F09E         	movff	sprintf@fmt+1,vfprintf@fmt+1
  3244  002ED2  0EAF               	movlw	low sprintf@ap
  3245  002ED4  6F9F               	movwf	vfprintf@ap& (0+255),b
  3246  002ED6  0E00               	movlw	high sprintf@ap
  3247  002ED8  6FA0               	movwf	(vfprintf@ap+1)& (0+255),b
  3248  002EDA  ECC0  F016         	call	_vfprintf	;wreg free
  3249  002EDE  0100               	movlb	0	; () banked
  3250  002EE0  51B3               	movf	(sprintf@f+2)& (0+255),w,b
  3251  002EE2  25A3               	addwf	sprintf@s& (0+255),w,b
  3252  002EE4  6ED9               	movwf	fsr2l,c
  3253  002EE6  51B4               	movf	(sprintf@f+3)& (0+255),w,b
  3254  002EE8  21A4               	addwfc	(sprintf@s+1)& (0+255),w,b
  3255  002EEA  6EDA               	movwf	fsr2h,c
  3256  002EEC  0E00               	movlw	0
  3257  002EEE  6EDF               	movwf	indf2,c
  3258  002EF0                     
  3259                           ; BSR set to: 0
  3260  002EF0  0012               	return		;funcret
  3261  002EF2                     __end_of_sprintf:
  3262                           	callstack 0
  3263                           
  3264 ;; *************** function _vfprintf *****************
  3265 ;; Defined at:
  3266 ;;		line 1390 in file "/Applications/microchip/xc8/v2.30/pic/sources/c99/common/doprnt.c"
  3267 ;; Parameters:    Size  Location     Type
  3268 ;;  fp              2   59[BANK0 ] PTR struct _IO_FILE
  3269 ;;		 -> sprintf@f(6), 
  3270 ;;  fmt             2   61[BANK0 ] PTR const unsigned char 
  3271 ;;		 -> STR_4(14), STR_3(14), STR_2(16), STR_1(10), 
  3272 ;;  ap              2   63[BANK0 ] PTR PTR void 
  3273 ;;		 -> sprintf@ap(2), 
  3274 ;; Auto vars:     Size  Location     Type
  3275 ;;  cfmt            2   65[BANK0 ] PTR unsigned char 
  3276 ;;		 -> STR_4(14), STR_3(14), STR_2(16), STR_1(10), 
  3277 ;; Return value:  Size  Location     Type
  3278 ;;                  2   59[BANK0 ] int 
  3279 ;; Registers used:
  3280 ;;		wreg, fsr1l, fsr1h, fsr2l, fsr2h, status,2, status,0, tblptrl, tblptrh, tblptru, prodl, prodh, cstack
  3281 ;; Tracked objects:
  3282 ;;		On entry : 0/0
  3283 ;;		On exit  : 0/0
  3284 ;;		Unchanged: 0/0
  3285 ;; Data sizes:     COMRAM   BANK0   BANK1   BANK2   BANK3   BANK4   BANK5   BANK6   BANK7   BANK8   BANK9  BANK10  BANK1
      +1  BANK12  BANK13  BANK14  BANK15
  3286 ;;      Params:         0       6       0       0       0       0       0       0       0       0       0       0       
      +0       0       0       0       0
  3287 ;;      Locals:         0       2       0       0       0       0       0       0       0       0       0       0       
      +0       0       0       0       0
  3288 ;;      Temps:          0       0       0       0       0       0       0       0       0       0       0       0       
      +0       0       0       0       0
  3289 ;;      Totals:         0       8       0       0       0       0       0       0       0       0       0       0       
      +0       0       0       0       0
  3290 ;;Total ram usage:        8 bytes
  3291 ;; Hardware stack levels used:    1
  3292 ;; Hardware stack levels required when called:    9
  3293 ;; This function calls:
  3294 ;;		_vfpfcnvrt
  3295 ;; This function is called by:
  3296 ;;		_sprintf
  3297 ;; This function uses a non-reentrant model
  3298 ;;
  3299                           
  3300                           	psect	text12
  3301  002D80                     __ptext12:
  3302                           	callstack 0
  3303  002D80                     _vfprintf:
  3304                           	callstack 19
  3305  002D80                     
  3306                           ;/Applications/microchip/xc8/v2.30/pic/sources/c99/common/doprnt.c: 1390: int vfprintf(F
      +                          ILE *fp, const char *fmt, va_list ap);/Applications/microchip/xc8/v2.30/pic/sources/c99/
      +                          common/doprnt.c: 1391: {;/Applications/microchip/xc8/v2.30/pic/sources/c99/common/doprnt
      +                          .c: 1393:     char *cfmt;;/Applications/microchip/xc8/v2.30/pic/sources/c99/common/doprn
      +                          t.c: 1395:     cfmt = (char *)fmt;
  3307  002D80  C09D  F0A1         	movff	vfprintf@fmt,vfprintf@cfmt
  3308  002D84  C09E  F0A2         	movff	vfprintf@fmt+1,vfprintf@cfmt+1
  3309  002D88                     
  3310                           ;/Applications/microchip/xc8/v2.30/pic/sources/c99/common/doprnt.c: 1396:     nout = 0;
  3311  002D88  0E00               	movlw	0
  3312  002D8A  0100               	movlb	0	; () banked
  3313  002D8C  6FEA               	movwf	(_nout+1)& (0+255),b
  3314  002D8E  0E00               	movlw	0
  3315  002D90  6FE9               	movwf	_nout& (0+255),b
  3316                           
  3317                           ;/Applications/microchip/xc8/v2.30/pic/sources/c99/common/doprnt.c: 1397:     while (*cf
      +                          mt) {
  3318  002D92  EFDE  F016         	goto	l3467
  3319  002D96                     l3465:
  3320                           
  3321                           ; BSR set to: 0
  3322                           ;/Applications/microchip/xc8/v2.30/pic/sources/c99/common/doprnt.c: 1398:         nout +
      +                          = vfpfcnvrt(fp, &cfmt, ap);
  3323  002D96  C09B  F084         	movff	vfprintf@fp,vfpfcnvrt@fp
  3324  002D9A  C09C  F085         	movff	vfprintf@fp+1,vfpfcnvrt@fp+1
  3325  002D9E  0EA1               	movlw	low vfprintf@cfmt
  3326  002DA0  6F86               	movwf	vfpfcnvrt@fmt& (0+255),b
  3327  002DA2  0E00               	movlw	high vfprintf@cfmt
  3328  002DA4  6F87               	movwf	(vfpfcnvrt@fmt+1)& (0+255),b
  3329  002DA6  C09F  F088         	movff	vfprintf@ap,vfpfcnvrt@ap
  3330  002DAA  C0A0  F089         	movff	vfprintf@ap+1,vfpfcnvrt@ap+1
  3331  002DAE  EC1C  F008         	call	_vfpfcnvrt	;wreg free
  3332  002DB2  0100               	movlb	0	; () banked
  3333  002DB4  5184               	movf	?_vfpfcnvrt& (0+255),w,b
  3334  002DB6  27E9               	addwf	_nout& (0+255),f,b
  3335  002DB8  5185               	movf	(?_vfpfcnvrt+1)& (0+255),w,b
  3336  002DBA  23EA               	addwfc	(_nout+1)& (0+255),f,b
  3337  002DBC                     l3467:
  3338                           
  3339                           ; BSR set to: 0
  3340                           ;/Applications/microchip/xc8/v2.30/pic/sources/c99/common/doprnt.c: 1397:     while (*cf
      +                          mt) {
  3341  002DBC  C0A1  FFF6         	movff	vfprintf@cfmt,tblptrl
  3342  002DC0  C0A2  FFF7         	movff	vfprintf@cfmt+1,tblptrh
  3343  002DC4                     	if	0	;tblptru may be non-zero
  3344  002DC4                     	endif
  3345  002DC4                     	if	1	;Program memory is > 0xFFFF, there are 3 active tblptr bytes
  3346  002DC4  0E00               	movlw	low (__mediumconst shr (0+16))
  3347  002DC6  6EF8               	movwf	tblptru,c
  3348  002DC8                     	endif
  3349  002DC8  0008               	tblrd		*
  3350  002DCA  50F5               	movf	tablat,w,c
  3351  002DCC  0900               	iorlw	0
  3352  002DCE  A4D8               	btfss	status,2,c
  3353  002DD0  EFEC  F016         	goto	u3221
  3354  002DD4  EFEE  F016         	goto	u3220
  3355  002DD8                     u3221:
  3356  002DD8  EFCB  F016         	goto	l3465
  3357  002DDC                     u3220:
  3358  002DDC                     
  3359                           ; BSR set to: 0
  3360                           ;/Applications/microchip/xc8/v2.30/pic/sources/c99/common/doprnt.c: 1400:     return nou
      +                          t;
  3361  002DDC  C0E9  F09B         	movff	_nout,?_vfprintf
  3362  002DE0  C0EA  F09C         	movff	_nout+1,?_vfprintf+1
  3363  002DE4                     
  3364                           ; BSR set to: 0
  3365  002DE4  0012               	return		;funcret
  3366  002DE6                     __end_of_vfprintf:
  3367                           	callstack 0
  3368                           
  3369 ;; *************** function _vfpfcnvrt *****************
  3370 ;; Defined at:
  3371 ;;		line 692 in file "/Applications/microchip/xc8/v2.30/pic/sources/c99/common/doprnt.c"
  3372 ;; Parameters:    Size  Location     Type
  3373 ;;  fp              2   36[BANK0 ] PTR struct _IO_FILE
  3374 ;;		 -> sprintf@f(6), 
  3375 ;;  fmt             2   38[BANK0 ] PTR PTR unsigned char 
  3376 ;;		 -> vfprintf@cfmt(2), 
  3377 ;;  ap              2   40[BANK0 ] PTR PTR void 
  3378 ;;		 -> sprintf@ap(2), 
  3379 ;; Auto vars:     Size  Location     Type
  3380 ;;  llu             8   46[BANK0 ] unsigned long long 
  3381 ;;  ll              8    0        long long 
  3382 ;;  f               4    0        long long 
  3383 ;;  vp              3    0        PTR void 
  3384 ;;  ct              3    0        unsigned char [3]
  3385 ;;  cp              3    0        PTR unsigned char 
  3386 ;;  done            2   55[BANK0 ] int 
  3387 ;;  i               2    0        int 
  3388 ;;  c               1   54[BANK0 ] unsigned char 
  3389 ;; Return value:  Size  Location     Type
  3390 ;;                  2   36[BANK0 ] int 
  3391 ;; Registers used:
  3392 ;;		wreg, fsr1l, fsr1h, fsr2l, fsr2h, status,2, status,0, tblptrl, tblptrh, tblptru, prodl, prodh, cstack
  3393 ;; Tracked objects:
  3394 ;;		On entry : 0/0
  3395 ;;		On exit  : 0/0
  3396 ;;		Unchanged: 0/0
  3397 ;; Data sizes:     COMRAM   BANK0   BANK1   BANK2   BANK3   BANK4   BANK5   BANK6   BANK7   BANK8   BANK9  BANK10  BANK1
      +1  BANK12  BANK13  BANK14  BANK15
  3398 ;;      Params:         0       6       0       0       0       0       0       0       0       0       0       0       
      +0       0       0       0       0
  3399 ;;      Locals:         0      13       0       0       0       0       0       0       0       0       0       0       
      +0       0       0       0       0
  3400 ;;      Temps:          0       4       0       0       0       0       0       0       0       0       0       0       
      +0       0       0       0       0
  3401 ;;      Totals:         0      23       0       0       0       0       0       0       0       0       0       0       
      +0       0       0       0       0
  3402 ;;Total ram usage:       23 bytes
  3403 ;; Hardware stack levels used:    1
  3404 ;; Hardware stack levels required when called:    8
  3405 ;; This function calls:
  3406 ;;		_atoi
  3407 ;;		_ctoa
  3408 ;;		_fputc
  3409 ;;		_isdigit
  3410 ;;		_utoa
  3411 ;; This function is called by:
  3412 ;;		_vfprintf
  3413 ;; This function uses a non-reentrant model
  3414 ;;
  3415                           
  3416                           	psect	text13
  3417  001038                     __ptext13:
  3418                           	callstack 0
  3419  001038                     _vfpfcnvrt:
  3420                           	callstack 19
  3421  001038                     
  3422                           ;/Applications/microchip/xc8/v2.30/pic/sources/c99/common/doprnt.c: 692: static int vfpf
      +                          cnvrt(FILE *fp, char *fmt[], va_list ap);/Applications/microchip/xc8/v2.30/pic/sources/c
      +                          99/common/doprnt.c: 693: {;/Applications/microchip/xc8/v2.30/pic/sources/c99/common/dopr
      +                          nt.c: 694:     char c, *cp, ct[3];;/Applications/microchip/xc8/v2.30/pic/sources/c99/com
      +                          mon/doprnt.c: 695:     int done, i;;/Applications/microchip/xc8/v2.30/pic/sources/c99/co
      +                          mmon/doprnt.c: 696:     long long ll;;/Applications/microchip/xc8/v2.30/pic/sources/c99/
      +                          common/doprnt.c: 697:     unsigned long long llu;
  3423  001038  C086  FFD9         	movff	vfpfcnvrt@fmt,fsr2l
  3424  00103C  C087  FFDA         	movff	vfpfcnvrt@fmt+1,fsr2h
  3425  001040  CFDE FFF6          	movff	postinc2,tblptrl
  3426  001044  CFDD FFF7          	movff	postdec2,tblptrh
  3427  001048                     	if	0	;tblptru may be non-zero
  3428  001048                     	endif
  3429  001048                     	if	1	;Program memory is > 0xFFFF, there are 3 active tblptr bytes
  3430  001048  0E00               	movlw	low (__mediumconst shr (0+16))
  3431  00104A  6EF8               	movwf	tblptru,c
  3432  00104C                     	endif
  3433  00104C  0008               	tblrd		*
  3434  00104E  50F5               	movf	tablat,w,c
  3435  001050  0A25               	xorlw	37
  3436  001052  A4D8               	btfss	status,2,c
  3437  001054  EF2E  F008         	goto	u3111
  3438  001058  EF30  F008         	goto	u3110
  3439  00105C                     u3111:
  3440  00105C  EFED  F009         	goto	l3445
  3441  001060                     u3110:
  3442  001060                     
  3443                           ;/Applications/microchip/xc8/v2.30/pic/sources/c99/common/doprnt.c: 703:         ++*fmt;
  3444  001060  C086  FFD9         	movff	vfpfcnvrt@fmt,fsr2l
  3445  001064  C087  FFDA         	movff	vfpfcnvrt@fmt+1,fsr2h
  3446  001068  2ADE               	incf	postinc2,f,c
  3447  00106A  0E00               	movlw	0
  3448  00106C  22DD               	addwfc	postdec2,f,c
  3449  00106E                     
  3450                           ;/Applications/microchip/xc8/v2.30/pic/sources/c99/common/doprnt.c: 705:         flags =
      +                           width = 0;
  3451  00106E  0E00               	movlw	0
  3452  001070  6E38               	movwf	(_width+1)^0,c
  3453  001072  0E00               	movlw	0
  3454  001074  6E37               	movwf	_width^0,c
  3455  001076  C037  F03B         	movff	_width,_flags
  3456  00107A  C038  F03C         	movff	_width+1,_flags+1
  3457  00107E                     
  3458                           ;/Applications/microchip/xc8/v2.30/pic/sources/c99/common/doprnt.c: 706:         prec = 
      +                          -1;
  3459  00107E  6839               	setf	_prec^0,c
  3460  001080  683A               	setf	(_prec+1)^0,c
  3461  001082                     
  3462                           ;/Applications/microchip/xc8/v2.30/pic/sources/c99/common/doprnt.c: 710:         done = 
      +                          0;
  3463  001082  0E00               	movlw	0
  3464  001084  0100               	movlb	0	; () banked
  3465  001086  6F98               	movwf	(vfpfcnvrt@done+1)& (0+255),b
  3466  001088  0E00               	movlw	0
  3467  00108A  6F97               	movwf	vfpfcnvrt@done& (0+255),b
  3468                           
  3469                           ;/Applications/microchip/xc8/v2.30/pic/sources/c99/common/doprnt.c: 711:         while (
      +                          !done) {
  3470  00108C  EF90  F008         	goto	l3391
  3471  001090                     l3365:
  3472                           
  3473                           ; BSR set to: 0
  3474                           ;/Applications/microchip/xc8/v2.30/pic/sources/c99/common/doprnt.c: 714:                
      +                               flags |= (1 << 0);
  3475  001090  803B               	bsf	_flags^0,0,c
  3476  001092                     l3367:
  3477                           
  3478                           ; BSR set to: 0
  3479                           ;/Applications/microchip/xc8/v2.30/pic/sources/c99/common/doprnt.c: 715:                
      +                               ++*fmt;
  3480  001092  C086  FFD9         	movff	vfpfcnvrt@fmt,fsr2l
  3481  001096  C087  FFDA         	movff	vfpfcnvrt@fmt+1,fsr2h
  3482  00109A  2ADE               	incf	postinc2,f,c
  3483  00109C  0E00               	movlw	0
  3484  00109E  22DD               	addwfc	postdec2,f,c
  3485                           
  3486                           ;/Applications/microchip/xc8/v2.30/pic/sources/c99/common/doprnt.c: 716:                
      +                               break;
  3487  0010A0  EF90  F008         	goto	l3391
  3488  0010A4                     l3369:
  3489                           
  3490                           ; BSR set to: 0
  3491                           ;/Applications/microchip/xc8/v2.30/pic/sources/c99/common/doprnt.c: 718:                
      +                               flags |= (1 << 1);
  3492  0010A4  823B               	bsf	_flags^0,1,c
  3493  0010A6  EF49  F008         	goto	l3367
  3494  0010AA                     l3373:
  3495                           
  3496                           ; BSR set to: 0
  3497                           ;/Applications/microchip/xc8/v2.30/pic/sources/c99/common/doprnt.c: 722:                
      +                               flags |= (1 << 2);
  3498  0010AA  843B               	bsf	_flags^0,2,c
  3499  0010AC  EF49  F008         	goto	l3367
  3500  0010B0                     l3377:
  3501                           
  3502                           ; BSR set to: 0
  3503                           ;/Applications/microchip/xc8/v2.30/pic/sources/c99/common/doprnt.c: 726:                
      +                               flags |= (1 << 3);
  3504  0010B0  863B               	bsf	_flags^0,3,c
  3505  0010B2  EF49  F008         	goto	l3367
  3506  0010B6                     l3381:
  3507                           
  3508                           ; BSR set to: 0
  3509                           ;/Applications/microchip/xc8/v2.30/pic/sources/c99/common/doprnt.c: 730:                
      +                               flags |= (1 << 4);
  3510  0010B6  883B               	bsf	_flags^0,4,c
  3511  0010B8  EF49  F008         	goto	l3367
  3512  0010BC                     l3385:
  3513                           
  3514                           ; BSR set to: 0
  3515                           ;/Applications/microchip/xc8/v2.30/pic/sources/c99/common/doprnt.c: 734:                
      +                               done = 1;
  3516  0010BC  0E00               	movlw	0
  3517  0010BE  6F98               	movwf	(vfpfcnvrt@done+1)& (0+255),b
  3518  0010C0  0E01               	movlw	1
  3519  0010C2  6F97               	movwf	vfpfcnvrt@done& (0+255),b
  3520                           
  3521                           ;/Applications/microchip/xc8/v2.30/pic/sources/c99/common/doprnt.c: 735:                
      +                               break;
  3522  0010C4  EF90  F008         	goto	l3391
  3523  0010C8                     l3389:
  3524                           
  3525                           ; BSR set to: 0
  3526  0010C8  C086  FFD9         	movff	vfpfcnvrt@fmt,fsr2l
  3527  0010CC  C087  FFDA         	movff	vfpfcnvrt@fmt+1,fsr2h
  3528  0010D0  CFDE FFF6          	movff	postinc2,tblptrl
  3529  0010D4  CFDD FFF7          	movff	postdec2,tblptrh
  3530  0010D8                     	if	0	;tblptru may be non-zero
  3531  0010D8                     	endif
  3532  0010D8                     	if	1	;Program memory is > 0xFFFF, there are 3 active tblptr bytes
  3533  0010D8  0E00               	movlw	low (__mediumconst shr (0+16))
  3534  0010DA  6EF8               	movwf	tblptru,c
  3535  0010DC                     	endif
  3536  0010DC  0008               	tblrd		*
  3537  0010DE  50F5               	movf	tablat,w,c
  3538  0010E0  6F8A               	movwf	??_vfpfcnvrt& (0+255),b
  3539  0010E2  6B8B               	clrf	(??_vfpfcnvrt+1)& (0+255),b
  3540                           
  3541                           ; Switch on 2 bytes has been partitioned into a top level switch of size 1, and 1 sub-sw
      +                          itches
  3542                           ; Switch size 1, requested type "simple"
  3543                           ; Number of cases is 1, Range of values is 0 to 0
  3544                           ; switch strategies available:
  3545                           ; Name         Instructions Cycles
  3546                           ; simple_byte            4     3 (average)
  3547                           ;	Chosen strategy is simple_byte
  3548  0010E4  518B               	movf	(??_vfpfcnvrt+1)& (0+255),w,b
  3549  0010E6  0A00               	xorlw	0	; case 0
  3550  0010E8  B4D8               	btfsc	status,2,c
  3551  0010EA  EF79  F008         	goto	l4039
  3552  0010EE  EF5E  F008         	goto	l3385
  3553  0010F2                     l4039:
  3554                           
  3555                           ; BSR set to: 0
  3556                           ; Switch size 1, requested type "simple"
  3557                           ; Number of cases is 5, Range of values is 32 to 48
  3558                           ; switch strategies available:
  3559                           ; Name         Instructions Cycles
  3560                           ; simple_byte           16     9 (average)
  3561                           ;	Chosen strategy is simple_byte
  3562  0010F2  518A               	movf	??_vfpfcnvrt& (0+255),w,b
  3563  0010F4  0A20               	xorlw	32	; case 32
  3564  0010F6  B4D8               	btfsc	status,2,c
  3565  0010F8  EF58  F008         	goto	l3377
  3566  0010FC  0A03               	xorlw	3	; case 35
  3567  0010FE  B4D8               	btfsc	status,2,c
  3568  001100  EF5B  F008         	goto	l3381
  3569  001104  0A08               	xorlw	8	; case 43
  3570  001106  B4D8               	btfsc	status,2,c
  3571  001108  EF55  F008         	goto	l3373
  3572  00110C  0A06               	xorlw	6	; case 45
  3573  00110E  B4D8               	btfsc	status,2,c
  3574  001110  EF48  F008         	goto	l3365
  3575  001114  0A1D               	xorlw	29	; case 48
  3576  001116  B4D8               	btfsc	status,2,c
  3577  001118  EF52  F008         	goto	l3369
  3578  00111C  EF5E  F008         	goto	l3385
  3579  001120                     l3391:
  3580                           
  3581                           ; BSR set to: 0
  3582                           ;/Applications/microchip/xc8/v2.30/pic/sources/c99/common/doprnt.c: 711:         while (
      +                          !done) {
  3583  001120  5197               	movf	vfpfcnvrt@done& (0+255),w,b
  3584  001122  1198               	iorwf	(vfpfcnvrt@done+1)& (0+255),w,b
  3585  001124  B4D8               	btfsc	status,2,c
  3586  001126  EF97  F008         	goto	u3121
  3587  00112A  EF99  F008         	goto	u3120
  3588  00112E                     u3121:
  3589  00112E  EF64  F008         	goto	l3389
  3590  001132                     u3120:
  3591  001132                     
  3592                           ; BSR set to: 0
  3593                           ;/Applications/microchip/xc8/v2.30/pic/sources/c99/common/doprnt.c: 738:         if (fla
      +                          gs & (1 << 0)) {
  3594  001132  A03B               	btfss	_flags^0,0,c
  3595  001134  EF9E  F008         	goto	u3131
  3596  001138  EFA0  F008         	goto	u3130
  3597  00113C                     u3131:
  3598  00113C  EFA1  F008         	goto	l3395
  3599  001140                     u3130:
  3600  001140                     
  3601                           ; BSR set to: 0
  3602                           ;/Applications/microchip/xc8/v2.30/pic/sources/c99/common/doprnt.c: 739:             fla
      +                          gs &= ~(1 << 1);
  3603  001140  923B               	bcf	_flags^0,1,c
  3604  001142                     l3395:
  3605                           
  3606                           ; BSR set to: 0
  3607                           ;/Applications/microchip/xc8/v2.30/pic/sources/c99/common/doprnt.c: 745:         if ((*f
      +                          mt)[0] == '*') {
  3608  001142  C086  FFD9         	movff	vfpfcnvrt@fmt,fsr2l
  3609  001146  C087  FFDA         	movff	vfpfcnvrt@fmt+1,fsr2h
  3610  00114A  CFDE FFF6          	movff	postinc2,tblptrl
  3611  00114E  CFDD FFF7          	movff	postdec2,tblptrh
  3612  001152                     	if	0	;tblptru may be non-zero
  3613  001152                     	endif
  3614  001152                     	if	1	;Program memory is > 0xFFFF, there are 3 active tblptr bytes
  3615  001152  0E00               	movlw	low (__mediumconst shr (0+16))
  3616  001154  6EF8               	movwf	tblptru,c
  3617  001156                     	endif
  3618  001156  0008               	tblrd		*
  3619  001158  50F5               	movf	tablat,w,c
  3620  00115A  0A2A               	xorlw	42
  3621  00115C  A4D8               	btfss	status,2,c
  3622  00115E  EFB3  F008         	goto	u3141
  3623  001162  EFB5  F008         	goto	u3140
  3624  001166                     u3141:
  3625  001166  EFDE  F008         	goto	l3403
  3626  00116A                     u3140:
  3627  00116A                     
  3628                           ; BSR set to: 0
  3629                           ;/Applications/microchip/xc8/v2.30/pic/sources/c99/common/doprnt.c: 746:             ++*
      +                          fmt;
  3630  00116A  C086  FFD9         	movff	vfpfcnvrt@fmt,fsr2l
  3631  00116E  C087  FFDA         	movff	vfpfcnvrt@fmt+1,fsr2h
  3632  001172  2ADE               	incf	postinc2,f,c
  3633  001174  0E00               	movlw	0
  3634  001176  22DD               	addwfc	postdec2,f,c
  3635                           
  3636                           ;/Applications/microchip/xc8/v2.30/pic/sources/c99/common/doprnt.c: 747:             wid
      +                          th = (*(int *)__va_arg(*(int **)ap, (int)0));
  3637  001178  C088  FFD9         	movff	vfpfcnvrt@ap,fsr2l
  3638  00117C  C089  FFDA         	movff	vfpfcnvrt@ap+1,fsr2h
  3639  001180  CFDF F08A          	movff	indf2,??_vfpfcnvrt
  3640  001184  0E02               	movlw	2
  3641  001186  26DE               	addwf	postinc2,f,c
  3642  001188  CFDF F08B          	movff	indf2,??_vfpfcnvrt+1
  3643  00118C  0E00               	movlw	0
  3644  00118E  22DD               	addwfc	postdec2,f,c
  3645  001190  C08A  FFD9         	movff	??_vfpfcnvrt,fsr2l
  3646  001194  C08B  FFDA         	movff	??_vfpfcnvrt+1,fsr2h
  3647  001198  CFDE F037          	movff	postinc2,_width
  3648  00119C  CFDD F038          	movff	postdec2,_width+1
  3649  0011A0                     
  3650                           ; BSR set to: 0
  3651                           ;/Applications/microchip/xc8/v2.30/pic/sources/c99/common/doprnt.c: 748:             if 
      +                          (width < 0) {
  3652  0011A0  BE38               	btfsc	(_width+1)^0,7,c
  3653  0011A2  EFD7  F008         	goto	u3150
  3654  0011A6  EFD5  F008         	goto	u3151
  3655  0011AA                     u3151:
  3656  0011AA  EF24  F009         	goto	l3413
  3657  0011AE                     u3150:
  3658  0011AE                     
  3659                           ; BSR set to: 0
  3660                           ;/Applications/microchip/xc8/v2.30/pic/sources/c99/common/doprnt.c: 749:                
      +                           flags |= (1 << 0);
  3661  0011AE  803B               	bsf	_flags^0,0,c
  3662                           
  3663                           ;/Applications/microchip/xc8/v2.30/pic/sources/c99/common/doprnt.c: 750:                
      +                           width = -width;
  3664  0011B0  6C37               	negf	_width^0,c
  3665  0011B2  1E38               	comf	(_width+1)^0,f,c
  3666  0011B4  B0D8               	btfsc	status,0,c
  3667  0011B6  2A38               	incf	(_width+1)^0,f,c
  3668  0011B8  EF24  F009         	goto	l3413
  3669  0011BC                     l3403:
  3670                           
  3671                           ; BSR set to: 0
  3672                           ;/Applications/microchip/xc8/v2.30/pic/sources/c99/common/doprnt.c: 753:             wid
      +                          th = atoi(*fmt);
  3673  0011BC  C086  FFD9         	movff	vfpfcnvrt@fmt,fsr2l
  3674  0011C0  C087  FFDA         	movff	vfpfcnvrt@fmt+1,fsr2h
  3675  0011C4  CFDE F01F          	movff	postinc2,atoi@s
  3676  0011C8  CFDD F020          	movff	postdec2,atoi@s+1
  3677  0011CC  EC57  F00F         	call	_atoi	;wreg free
  3678  0011D0  C01F  F037         	movff	?_atoi,_width
  3679  0011D4  C020  F038         	movff	?_atoi+1,_width+1
  3680                           
  3681                           ;/Applications/microchip/xc8/v2.30/pic/sources/c99/common/doprnt.c: 754:             whi
      +                          le ((0 ? isdigit((*fmt)[0]) : ((unsigned)((*fmt)[0])-'0') < 10)) {
  3682  0011D8  EFF5  F008         	goto	l3407
  3683  0011DC                     l3405:
  3684                           
  3685                           ; BSR set to: 0
  3686                           ;/Applications/microchip/xc8/v2.30/pic/sources/c99/common/doprnt.c: 755:                
      +                           ++*fmt;
  3687  0011DC  C086  FFD9         	movff	vfpfcnvrt@fmt,fsr2l
  3688  0011E0  C087  FFDA         	movff	vfpfcnvrt@fmt+1,fsr2h
  3689  0011E4  2ADE               	incf	postinc2,f,c
  3690  0011E6  0E00               	movlw	0
  3691  0011E8  22DD               	addwfc	postdec2,f,c
  3692  0011EA                     l3407:
  3693  0011EA  0ED0               	movlw	208
  3694  0011EC  0100               	movlb	0	; () banked
  3695  0011EE  6F8A               	movwf	??_vfpfcnvrt& (0+255),b
  3696  0011F0  0EFF               	movlw	255
  3697  0011F2  6F8B               	movwf	(??_vfpfcnvrt+1)& (0+255),b
  3698  0011F4  C086  FFD9         	movff	vfpfcnvrt@fmt,fsr2l
  3699  0011F8  C087  FFDA         	movff	vfpfcnvrt@fmt+1,fsr2h
  3700  0011FC  CFDE FFF6          	movff	postinc2,tblptrl
  3701  001200  CFDD FFF7          	movff	postdec2,tblptrh
  3702  001204                     	if	0	;tblptru may be non-zero
  3703  001204                     	endif
  3704  001204                     	if	1	;Program memory is > 0xFFFF, there are 3 active tblptr bytes
  3705  001204  0E00               	movlw	low (__mediumconst shr (0+16))
  3706  001206  6EF8               	movwf	tblptru,c
  3707  001208                     	endif
  3708  001208  0008               	tblrd		*
  3709  00120A  50F5               	movf	tablat,w,c
  3710  00120C  6F8C               	movwf	(??_vfpfcnvrt+2)& (0+255),b
  3711  00120E  6B8D               	clrf	(??_vfpfcnvrt+3)& (0+255),b
  3712  001210  518A               	movf	??_vfpfcnvrt& (0+255),w,b
  3713  001212  278C               	addwf	(??_vfpfcnvrt+2)& (0+255),f,b
  3714  001214  518B               	movf	(??_vfpfcnvrt+1)& (0+255),w,b
  3715  001216  238D               	addwfc	(??_vfpfcnvrt+3)& (0+255),f,b
  3716  001218  518D               	movf	(??_vfpfcnvrt+3)& (0+255),w,b
  3717  00121A  E10A               	bnz	u3160
  3718  00121C  0E0A               	movlw	10
  3719  00121E  5D8C               	subwf	(??_vfpfcnvrt+2)& (0+255),w,b
  3720  001220  A0D8               	btfss	status,0,c
  3721  001222  EF15  F009         	goto	u3161
  3722  001226  EF18  F009         	goto	u3160
  3723  00122A                     u3161:
  3724  00122A  0E01               	movlw	1
  3725  00122C  EF19  F009         	goto	u3170
  3726  001230                     u3160:
  3727  001230  0E00               	movlw	0
  3728  001232                     u3170:
  3729  001232  6F99               	movwf	_vfpfcnvrt$1260& (0+255),b
  3730  001234  6B9A               	clrf	(_vfpfcnvrt$1260+1)& (0+255),b
  3731  001236                     
  3732                           ; BSR set to: 0
  3733  001236  5199               	movf	_vfpfcnvrt$1260& (0+255),w,b
  3734  001238  119A               	iorwf	(_vfpfcnvrt$1260+1)& (0+255),w,b
  3735  00123A  A4D8               	btfss	status,2,c
  3736  00123C  EF22  F009         	goto	u3181
  3737  001240  EF24  F009         	goto	u3180
  3738  001244                     u3181:
  3739  001244  EFEE  F008         	goto	l3405
  3740  001248                     u3180:
  3741  001248                     l3413:
  3742                           
  3743                           ; BSR set to: 0
  3744                           ;/Applications/microchip/xc8/v2.30/pic/sources/c99/common/doprnt.c: 814:         if (*fm
      +                          t[0] == 'c') {
  3745  001248  C086  FFD9         	movff	vfpfcnvrt@fmt,fsr2l
  3746  00124C  C087  FFDA         	movff	vfpfcnvrt@fmt+1,fsr2h
  3747  001250  CFDE FFF6          	movff	postinc2,tblptrl
  3748  001254  CFDD FFF7          	movff	postdec2,tblptrh
  3749  001258                     	if	0	;tblptru may be non-zero
  3750  001258                     	endif
  3751  001258                     	if	1	;Program memory is > 0xFFFF, there are 3 active tblptr bytes
  3752  001258  0E00               	movlw	low (__mediumconst shr (0+16))
  3753  00125A  6EF8               	movwf	tblptru,c
  3754  00125C                     	endif
  3755  00125C  0008               	tblrd		*
  3756  00125E  50F5               	movf	tablat,w,c
  3757  001260  0A63               	xorlw	99
  3758  001262  A4D8               	btfss	status,2,c
  3759  001264  EF36  F009         	goto	u3191
  3760  001268  EF38  F009         	goto	u3190
  3761  00126C                     u3191:
  3762  00126C  EF5F  F009         	goto	l3421
  3763  001270                     u3190:
  3764  001270                     
  3765                           ; BSR set to: 0
  3766                           ;/Applications/microchip/xc8/v2.30/pic/sources/c99/common/doprnt.c: 815:             ++*
      +                          fmt;
  3767  001270  C086  FFD9         	movff	vfpfcnvrt@fmt,fsr2l
  3768  001274  C087  FFDA         	movff	vfpfcnvrt@fmt+1,fsr2h
  3769  001278  2ADE               	incf	postinc2,f,c
  3770  00127A  0E00               	movlw	0
  3771  00127C  22DD               	addwfc	postdec2,f,c
  3772                           
  3773                           ;/Applications/microchip/xc8/v2.30/pic/sources/c99/common/doprnt.c: 816:             c =
      +                           (unsigned char)(*(int *)__va_arg(*(int **)ap, (int)0));
  3774  00127E  C088  FFD9         	movff	vfpfcnvrt@ap,fsr2l
  3775  001282  C089  FFDA         	movff	vfpfcnvrt@ap+1,fsr2h
  3776  001286  CFDF F08A          	movff	indf2,??_vfpfcnvrt
  3777  00128A  0E02               	movlw	2
  3778  00128C  26DE               	addwf	postinc2,f,c
  3779  00128E  CFDF F08B          	movff	indf2,??_vfpfcnvrt+1
  3780  001292  0E00               	movlw	0
  3781  001294  22DD               	addwfc	postdec2,f,c
  3782  001296  C08A  FFD9         	movff	??_vfpfcnvrt,fsr2l
  3783  00129A  C08B  FFDA         	movff	??_vfpfcnvrt+1,fsr2h
  3784  00129E  50DF               	movf	indf2,w,c
  3785  0012A0  6F96               	movwf	vfpfcnvrt@c& (0+255),b
  3786  0012A2                     
  3787                           ; BSR set to: 0
  3788                           ;/Applications/microchip/xc8/v2.30/pic/sources/c99/common/doprnt.c: 817:             ret
      +                          urn ctoa(fp, c);
  3789  0012A2  C084  F021         	movff	vfpfcnvrt@fp,ctoa@fp
  3790  0012A6  C085  F022         	movff	vfpfcnvrt@fp+1,ctoa@fp+1
  3791  0012AA  C096  F023         	movff	vfpfcnvrt@c,ctoa@c
  3792  0012AE  EC16  F013         	call	_ctoa	;wreg free
  3793  0012B2  C021  F084         	movff	?_ctoa,?_vfpfcnvrt
  3794  0012B6  C022  F085         	movff	?_ctoa+1,?_vfpfcnvrt+1
  3795  0012BA  EF0A  F00A         	goto	l1089
  3796  0012BE                     l3421:
  3797                           
  3798                           ; BSR set to: 0
  3799                           ;/Applications/microchip/xc8/v2.30/pic/sources/c99/common/doprnt.c: 1204:         if (*f
      +                          mt[0] == 'u') {
  3800  0012BE  C086  FFD9         	movff	vfpfcnvrt@fmt,fsr2l
  3801  0012C2  C087  FFDA         	movff	vfpfcnvrt@fmt+1,fsr2h
  3802  0012C6  CFDE FFF6          	movff	postinc2,tblptrl
  3803  0012CA  CFDD FFF7          	movff	postdec2,tblptrh
  3804  0012CE                     	if	0	;tblptru may be non-zero
  3805  0012CE                     	endif
  3806  0012CE                     	if	1	;Program memory is > 0xFFFF, there are 3 active tblptr bytes
  3807  0012CE  0E00               	movlw	low (__mediumconst shr (0+16))
  3808  0012D0  6EF8               	movwf	tblptru,c
  3809  0012D2                     	endif
  3810  0012D2  0008               	tblrd		*
  3811  0012D4  50F5               	movf	tablat,w,c
  3812  0012D6  0A75               	xorlw	117
  3813  0012D8  A4D8               	btfss	status,2,c
  3814  0012DA  EF71  F009         	goto	u3201
  3815  0012DE  EF73  F009         	goto	u3200
  3816  0012E2                     u3201:
  3817  0012E2  EFB4  F009         	goto	l3429
  3818  0012E6                     u3200:
  3819  0012E6                     
  3820                           ; BSR set to: 0
  3821                           ;/Applications/microchip/xc8/v2.30/pic/sources/c99/common/doprnt.c: 1206:             ++
      +                          *fmt;
  3822  0012E6  C086  FFD9         	movff	vfpfcnvrt@fmt,fsr2l
  3823  0012EA  C087  FFDA         	movff	vfpfcnvrt@fmt+1,fsr2h
  3824  0012EE  2ADE               	incf	postinc2,f,c
  3825  0012F0  0E00               	movlw	0
  3826  0012F2  22DD               	addwfc	postdec2,f,c
  3827                           
  3828                           ;/Applications/microchip/xc8/v2.30/pic/sources/c99/common/doprnt.c: 1207:             ll
      +                          u = (unsigned long long)(*(unsigned int *)__va_arg(*(unsigned int **)ap, (unsigned int)0
      +                          ));
  3829  0012F4  C088  FFD9         	movff	vfpfcnvrt@ap,fsr2l
  3830  0012F8  C089  FFDA         	movff	vfpfcnvrt@ap+1,fsr2h
  3831  0012FC  CFDF F08A          	movff	indf2,??_vfpfcnvrt
  3832  001300  0E02               	movlw	2
  3833  001302  26DE               	addwf	postinc2,f,c
  3834  001304  CFDF F08B          	movff	indf2,??_vfpfcnvrt+1
  3835  001308  0E00               	movlw	0
  3836  00130A  22DD               	addwfc	postdec2,f,c
  3837  00130C  C08A  FFD9         	movff	??_vfpfcnvrt,fsr2l
  3838  001310  C08B  FFDA         	movff	??_vfpfcnvrt+1,fsr2h
  3839  001314  CFDE F08C          	movff	postinc2,??_vfpfcnvrt+2
  3840  001318  CFDD F08D          	movff	postdec2,??_vfpfcnvrt+3
  3841  00131C  C08C  F08E         	movff	??_vfpfcnvrt+2,vfpfcnvrt@llu
  3842  001320  C08D  F08F         	movff	??_vfpfcnvrt+3,vfpfcnvrt@llu+1
  3843  001324  6B90               	clrf	(vfpfcnvrt@llu+2)& (0+255),b
  3844  001326  6B91               	clrf	(vfpfcnvrt@llu+3)& (0+255),b
  3845  001328  6B92               	clrf	(vfpfcnvrt@llu+4)& (0+255),b
  3846  00132A  6B93               	clrf	(vfpfcnvrt@llu+5)& (0+255),b
  3847  00132C  6B94               	clrf	(vfpfcnvrt@llu+6)& (0+255),b
  3848  00132E  6B95               	clrf	(vfpfcnvrt@llu+7)& (0+255),b
  3849  001330                     
  3850                           ; BSR set to: 0
  3851                           ;/Applications/microchip/xc8/v2.30/pic/sources/c99/common/doprnt.c: 1209:             re
      +                          turn utoa(fp, llu);
  3852  001330  C084  F064         	movff	vfpfcnvrt@fp,utoa@fp
  3853  001334  C085  F065         	movff	vfpfcnvrt@fp+1,utoa@fp+1
  3854  001338  C08E  F066         	movff	vfpfcnvrt@llu,utoa@d
  3855  00133C  C08F  F067         	movff	vfpfcnvrt@llu+1,utoa@d+1
  3856  001340  C090  F068         	movff	vfpfcnvrt@llu+2,utoa@d+2
  3857  001344  C091  F069         	movff	vfpfcnvrt@llu+3,utoa@d+3
  3858  001348  C092  F06A         	movff	vfpfcnvrt@llu+4,utoa@d+4
  3859  00134C  C093  F06B         	movff	vfpfcnvrt@llu+5,utoa@d+5
  3860  001350  C094  F06C         	movff	vfpfcnvrt@llu+6,utoa@d+6
  3861  001354  C095  F06D         	movff	vfpfcnvrt@llu+7,utoa@d+7
  3862  001358  EC68  F00C         	call	_utoa	;wreg free
  3863  00135C  C064  F084         	movff	?_utoa,?_vfpfcnvrt
  3864  001360  C065  F085         	movff	?_utoa+1,?_vfpfcnvrt+1
  3865  001364  EF0A  F00A         	goto	l1089
  3866  001368                     l3429:
  3867                           
  3868                           ; BSR set to: 0
  3869                           ;/Applications/microchip/xc8/v2.30/pic/sources/c99/common/doprnt.c: 1372:         if ((*
      +                          fmt)[0] == '%') {
  3870  001368  C086  FFD9         	movff	vfpfcnvrt@fmt,fsr2l
  3871  00136C  C087  FFDA         	movff	vfpfcnvrt@fmt+1,fsr2h
  3872  001370  CFDE FFF6          	movff	postinc2,tblptrl
  3873  001374  CFDD FFF7          	movff	postdec2,tblptrh
  3874  001378                     	if	0	;tblptru may be non-zero
  3875  001378                     	endif
  3876  001378                     	if	1	;Program memory is > 0xFFFF, there are 3 active tblptr bytes
  3877  001378  0E00               	movlw	low (__mediumconst shr (0+16))
  3878  00137A  6EF8               	movwf	tblptru,c
  3879  00137C                     	endif
  3880  00137C  0008               	tblrd		*
  3881  00137E  50F5               	movf	tablat,w,c
  3882  001380  0A25               	xorlw	37
  3883  001382  A4D8               	btfss	status,2,c
  3884  001384  EFC6  F009         	goto	u3211
  3885  001388  EFC8  F009         	goto	u3210
  3886  00138C                     u3211:
  3887  00138C  EFE0  F009         	goto	l3439
  3888  001390                     u3210:
  3889  001390                     
  3890                           ; BSR set to: 0
  3891                           ;/Applications/microchip/xc8/v2.30/pic/sources/c99/common/doprnt.c: 1373:             ++
      +                          *fmt;
  3892  001390  C086  FFD9         	movff	vfpfcnvrt@fmt,fsr2l
  3893  001394  C087  FFDA         	movff	vfpfcnvrt@fmt+1,fsr2h
  3894  001398  2ADE               	incf	postinc2,f,c
  3895  00139A  0E00               	movlw	0
  3896  00139C  22DD               	addwfc	postdec2,f,c
  3897  00139E                     
  3898                           ; BSR set to: 0
  3899                           ;/Applications/microchip/xc8/v2.30/pic/sources/c99/common/doprnt.c: 1374:             fp
      +                          utc((int)'%', fp);
  3900  00139E  0E00               	movlw	0
  3901  0013A0  6E19               	movwf	(fputc@c+1)^0,c
  3902  0013A2  0E25               	movlw	37
  3903  0013A4  6E18               	movwf	fputc@c^0,c
  3904  0013A6  C084  F01A         	movff	vfpfcnvrt@fp,fputc@fp
  3905  0013AA  C085  F01B         	movff	vfpfcnvrt@fp+1,fputc@fp+1
  3906  0013AE  EC4D  F014         	call	_fputc	;wreg free
  3907  0013B2                     l3435:
  3908                           
  3909                           ;/Applications/microchip/xc8/v2.30/pic/sources/c99/common/doprnt.c: 1375:             re
      +                          turn 1;
  3910  0013B2  0E00               	movlw	0
  3911  0013B4  0100               	movlb	0	; () banked
  3912  0013B6  6F85               	movwf	(?_vfpfcnvrt+1)& (0+255),b
  3913  0013B8  0E01               	movlw	1
  3914  0013BA  6F84               	movwf	?_vfpfcnvrt& (0+255),b
  3915  0013BC  EF0A  F00A         	goto	l1089
  3916  0013C0                     l3439:
  3917                           
  3918                           ; BSR set to: 0
  3919                           ;/Applications/microchip/xc8/v2.30/pic/sources/c99/common/doprnt.c: 1379:         ++*fmt
      +                          ;
  3920  0013C0  C086  FFD9         	movff	vfpfcnvrt@fmt,fsr2l
  3921  0013C4  C087  FFDA         	movff	vfpfcnvrt@fmt+1,fsr2h
  3922  0013C8  2ADE               	incf	postinc2,f,c
  3923  0013CA  0E00               	movlw	0
  3924  0013CC  22DD               	addwfc	postdec2,f,c
  3925  0013CE                     
  3926                           ; BSR set to: 0
  3927                           ;/Applications/microchip/xc8/v2.30/pic/sources/c99/common/doprnt.c: 1380:         return
      +                           0;
  3928  0013CE  0E00               	movlw	0
  3929  0013D0  6F85               	movwf	(?_vfpfcnvrt+1)& (0+255),b
  3930  0013D2  0E00               	movlw	0
  3931  0013D4  6F84               	movwf	?_vfpfcnvrt& (0+255),b
  3932  0013D6  EF0A  F00A         	goto	l1089
  3933  0013DA                     l3445:
  3934                           
  3935                           ;/Applications/microchip/xc8/v2.30/pic/sources/c99/common/doprnt.c: 1384:     fputc((int
      +                          )(*fmt)[0], fp);
  3936  0013DA  C086  FFD9         	movff	vfpfcnvrt@fmt,fsr2l
  3937  0013DE  C087  FFDA         	movff	vfpfcnvrt@fmt+1,fsr2h
  3938  0013E2  CFDE FFF6          	movff	postinc2,tblptrl
  3939  0013E6  CFDD FFF7          	movff	postdec2,tblptrh
  3940  0013EA                     	if	0	;tblptru may be non-zero
  3941  0013EA                     	endif
  3942  0013EA                     	if	1	;Program memory is > 0xFFFF, there are 3 active tblptr bytes
  3943  0013EA  0E00               	movlw	low (__mediumconst shr (0+16))
  3944  0013EC  6EF8               	movwf	tblptru,c
  3945  0013EE                     	endif
  3946  0013EE  0008               	tblrd		*
  3947  0013F0  50F5               	movf	tablat,w,c
  3948  0013F2  6E18               	movwf	fputc@c^0,c
  3949  0013F4  6A19               	clrf	(fputc@c+1)^0,c
  3950  0013F6  C084  F01A         	movff	vfpfcnvrt@fp,fputc@fp
  3951  0013FA  C085  F01B         	movff	vfpfcnvrt@fp+1,fputc@fp+1
  3952  0013FE  EC4D  F014         	call	_fputc	;wreg free
  3953  001402                     
  3954                           ;/Applications/microchip/xc8/v2.30/pic/sources/c99/common/doprnt.c: 1385:     ++*fmt;
  3955  001402  C086  FFD9         	movff	vfpfcnvrt@fmt,fsr2l
  3956  001406  C087  FFDA         	movff	vfpfcnvrt@fmt+1,fsr2h
  3957  00140A  2ADE               	incf	postinc2,f,c
  3958  00140C  0E00               	movlw	0
  3959  00140E  22DD               	addwfc	postdec2,f,c
  3960  001410  EFD9  F009         	goto	l3435
  3961  001414                     l1089:
  3962  001414  0012               	return		;funcret
  3963  001416                     __end_of_vfpfcnvrt:
  3964                           	callstack 0
  3965                           
  3966 ;; *************** function _utoa *****************
  3967 ;; Defined at:
  3968 ;;		line 615 in file "/Applications/microchip/xc8/v2.30/pic/sources/c99/common/doprnt.c"
  3969 ;; Parameters:    Size  Location     Type
  3970 ;;  fp              2    4[BANK0 ] PTR struct _IO_FILE
  3971 ;;		 -> sprintf@f(6), 
  3972 ;;  d               8    6[BANK0 ] unsigned long long 
  3973 ;; Auto vars:     Size  Location     Type
  3974 ;;  n               8   26[BANK0 ] unsigned long long 
  3975 ;;  i               2   34[BANK0 ] int 
  3976 ;;  w               2   24[BANK0 ] int 
  3977 ;;  p               2   22[BANK0 ] int 
  3978 ;; Return value:  Size  Location     Type
  3979 ;;                  2    4[BANK0 ] int 
  3980 ;; Registers used:
  3981 ;;		wreg, fsr1l, fsr1h, fsr2l, fsr2h, status,2, status,0, cstack
  3982 ;; Tracked objects:
  3983 ;;		On entry : 0/0
  3984 ;;		On exit  : 0/0
  3985 ;;		Unchanged: 0/0
  3986 ;; Data sizes:     COMRAM   BANK0   BANK1   BANK2   BANK3   BANK4   BANK5   BANK6   BANK7   BANK8   BANK9  BANK10  BANK1
      +1  BANK12  BANK13  BANK14  BANK15
  3987 ;;      Params:         0      10       0       0       0       0       0       0       0       0       0       0       
      +0       0       0       0       0
  3988 ;;      Locals:         0      14       0       0       0       0       0       0       0       0       0       0       
      +0       0       0       0       0
  3989 ;;      Temps:          0       8       0       0       0       0       0       0       0       0       0       0       
      +0       0       0       0       0
  3990 ;;      Totals:         0      32       0       0       0       0       0       0       0       0       0       0       
      +0       0       0       0       0
  3991 ;;Total ram usage:       32 bytes
  3992 ;; Hardware stack levels used:    1
  3993 ;; Hardware stack levels required when called:    7
  3994 ;; This function calls:
  3995 ;;		___lodiv
  3996 ;;		___lomod
  3997 ;;		_pad
  3998 ;; This function is called by:
  3999 ;;		_vfpfcnvrt
  4000 ;; This function uses a non-reentrant model
  4001 ;;
  4002                           
  4003                           	psect	text14
  4004  0018D0                     __ptext14:
  4005                           	callstack 0
  4006  0018D0                     _utoa:
  4007                           	callstack 19
  4008  0018D0                     
  4009                           ;/Applications/microchip/xc8/v2.30/pic/sources/c99/common/doprnt.c: 615: static int utoa
      +                          (FILE *fp, unsigned long long d);/Applications/microchip/xc8/v2.30/pic/sources/c99/commo
      +                          n/doprnt.c: 616: {;/Applications/microchip/xc8/v2.30/pic/sources/c99/common/doprnt.c: 61
      +                          7:     int i, p, w;;/Applications/microchip/xc8/v2.30/pic/sources/c99/common/doprnt.c: 6
      +                          18:     unsigned long long n;;/Applications/microchip/xc8/v2.30/pic/sources/c99/common/d
      +                          oprnt.c: 621:     if (!(prec < 0)) {
  4010  0018D0  BE3A               	btfsc	(_prec+1)^0,7,c
  4011  0018D2  EF6D  F00C         	goto	u2971
  4012  0018D6  EF6F  F00C         	goto	u2970
  4013  0018DA                     u2971:
  4014  0018DA  EF70  F00C         	goto	l3281
  4015  0018DE                     u2970:
  4016  0018DE                     
  4017                           ;/Applications/microchip/xc8/v2.30/pic/sources/c99/common/doprnt.c: 622:         flags &
      +                          = ~(1 << 1);
  4018  0018DE  923B               	bcf	_flags^0,1,c
  4019  0018E0                     l3281:
  4020                           
  4021                           ;/Applications/microchip/xc8/v2.30/pic/sources/c99/common/doprnt.c: 624:     p = (0 < pr
      +                          ec) ? prec : 1;
  4022  0018E0  BE3A               	btfsc	(_prec+1)^0,7,c
  4023  0018E2  EF7D  F00C         	goto	u2980
  4024  0018E6  503A               	movf	(_prec+1)^0,w,c
  4025  0018E8  E106               	bnz	u2981
  4026  0018EA  0439               	decf	_prec^0,w,c
  4027  0018EC  B0D8               	btfsc	status,0,c
  4028  0018EE  EF7B  F00C         	goto	u2981
  4029  0018F2  EF7D  F00C         	goto	u2980
  4030  0018F6                     u2981:
  4031  0018F6  EF84  F00C         	goto	l1052
  4032  0018FA                     u2980:
  4033  0018FA  0E00               	movlw	0
  4034  0018FC  0100               	movlb	0	; () banked
  4035  0018FE  6F77               	movwf	(utoa@p+1)& (0+255),b
  4036  001900  0E01               	movlw	1
  4037  001902  6F76               	movwf	utoa@p& (0+255),b
  4038  001904  EF88  F00C         	goto	l1054
  4039  001908                     l1052:
  4040  001908  C039  F076         	movff	_prec,utoa@p
  4041  00190C  C03A  F077         	movff	_prec+1,utoa@p+1
  4042  001910                     l1054:
  4043                           
  4044                           ;/Applications/microchip/xc8/v2.30/pic/sources/c99/common/doprnt.c: 625:     w = width;
  4045  001910  C037  F078         	movff	_width,utoa@w
  4046  001914  C038  F079         	movff	_width+1,utoa@w+1
  4047                           
  4048                           ;/Applications/microchip/xc8/v2.30/pic/sources/c99/common/doprnt.c: 628:     n = d;
  4049  001918  C066  F07A         	movff	utoa@d,utoa@n
  4050  00191C  C067  F07B         	movff	utoa@d+1,utoa@n+1
  4051  001920  C068  F07C         	movff	utoa@d+2,utoa@n+2
  4052  001924  C069  F07D         	movff	utoa@d+3,utoa@n+3
  4053  001928  C06A  F07E         	movff	utoa@d+4,utoa@n+4
  4054  00192C  C06B  F07F         	movff	utoa@d+5,utoa@n+5
  4055  001930  C06C  F080         	movff	utoa@d+6,utoa@n+6
  4056  001934  C06D  F081         	movff	utoa@d+7,utoa@n+7
  4057  001938                     
  4058                           ;/Applications/microchip/xc8/v2.30/pic/sources/c99/common/doprnt.c: 629:     i = sizeof(
      +                          dbuf) - 1;
  4059  001938  0E00               	movlw	0
  4060  00193A  0100               	movlb	0	; () banked
  4061  00193C  6F83               	movwf	(utoa@i+1)& (0+255),b
  4062  00193E  0E1F               	movlw	31
  4063  001940  6F82               	movwf	utoa@i& (0+255),b
  4064  001942                     
  4065                           ; BSR set to: 0
  4066                           ;/Applications/microchip/xc8/v2.30/pic/sources/c99/common/doprnt.c: 630:     dbuf[i] = '
      +                          \0';
  4067  001942  0E00               	movlw	0
  4068  001944  0101               	movlb	1	; () banked
  4069  001946  6FEB               	movwf	(_dbuf+31)& (0+255),b
  4070                           
  4071                           ;/Applications/microchip/xc8/v2.30/pic/sources/c99/common/doprnt.c: 631:     while (i &&
      +                           (n || (0 < p) || ((0 < w) && (flags & (1 << 1))))) {
  4072  001948  EF1D  F00D         	goto	l3299
  4073  00194C                     l3289:
  4074                           
  4075                           ; BSR set to: 0
  4076                           ;/Applications/microchip/xc8/v2.30/pic/sources/c99/common/doprnt.c: 632:         --i;
  4077  00194C  0782               	decf	utoa@i& (0+255),f,b
  4078  00194E  A0D8               	btfss	status,0,c
  4079  001950  0783               	decf	(utoa@i+1)& (0+255),f,b
  4080  001952                     
  4081                           ; BSR set to: 0
  4082                           ;/Applications/microchip/xc8/v2.30/pic/sources/c99/common/doprnt.c: 633:         dbuf[i]
      +                           = '0' + (n % 10);
  4083  001952  0ECC               	movlw	low _dbuf
  4084  001954  2582               	addwf	utoa@i& (0+255),w,b
  4085  001956  6ED9               	movwf	fsr2l,c
  4086  001958  0E01               	movlw	high _dbuf
  4087  00195A  2183               	addwfc	(utoa@i+1)& (0+255),w,b
  4088  00195C  6EDA               	movwf	fsr2h,c
  4089  00195E  C07A  F018         	movff	utoa@n,___lomod@dividend
  4090  001962  C07B  F019         	movff	utoa@n+1,___lomod@dividend+1
  4091  001966  C07C  F01A         	movff	utoa@n+2,___lomod@dividend+2
  4092  00196A  C07D  F01B         	movff	utoa@n+3,___lomod@dividend+3
  4093  00196E  C07E  F01C         	movff	utoa@n+4,___lomod@dividend+4
  4094  001972  C07F  F01D         	movff	utoa@n+5,___lomod@dividend+5
  4095  001976  C080  F01E         	movff	utoa@n+6,___lomod@dividend+6
  4096  00197A  C081  F01F         	movff	utoa@n+7,___lomod@dividend+7
  4097  00197E  0E0A               	movlw	10
  4098  001980  6E20               	movwf	___lomod@divisor^0,c
  4099  001982  0E00               	movlw	0
  4100  001984  6E21               	movwf	(___lomod@divisor+1)^0,c
  4101  001986  0E00               	movlw	0
  4102  001988  6E22               	movwf	(___lomod@divisor+2)^0,c
  4103  00198A  0E00               	movlw	0
  4104  00198C  6E23               	movwf	(___lomod@divisor+3)^0,c
  4105  00198E  0E00               	movlw	0
  4106  001990  6E24               	movwf	(___lomod@divisor+4)^0,c
  4107  001992  0E00               	movlw	0
  4108  001994  6E25               	movwf	(___lomod@divisor+5)^0,c
  4109  001996  0E00               	movlw	0
  4110  001998  6E26               	movwf	(___lomod@divisor+6)^0,c
  4111  00199A  0E00               	movlw	0
  4112  00199C  6E27               	movwf	(___lomod@divisor+7)^0,c
  4113  00199E  EC80  F013         	call	___lomod	;wreg free
  4114  0019A2  C018  F06E         	movff	?___lomod,??_utoa
  4115  0019A6  C019  F06F         	movff	?___lomod+1,??_utoa+1
  4116  0019AA  C01A  F070         	movff	?___lomod+2,??_utoa+2
  4117  0019AE  C01B  F071         	movff	?___lomod+3,??_utoa+3
  4118  0019B2  C01C  F072         	movff	?___lomod+4,??_utoa+4
  4119  0019B6  C01D  F073         	movff	?___lomod+5,??_utoa+5
  4120  0019BA  C01E  F074         	movff	?___lomod+6,??_utoa+6
  4121  0019BE  C01F  F075         	movff	?___lomod+7,??_utoa+7
  4122  0019C2  0100               	movlb	0	; () banked
  4123  0019C4  516E               	movf	??_utoa& (0+255),w,b
  4124  0019C6  0F30               	addlw	48
  4125  0019C8  6EDF               	movwf	indf2,c
  4126  0019CA                     
  4127                           ; BSR set to: 0
  4128                           ;/Applications/microchip/xc8/v2.30/pic/sources/c99/common/doprnt.c: 634:         --p;
  4129  0019CA  0776               	decf	utoa@p& (0+255),f,b
  4130  0019CC  A0D8               	btfss	status,0,c
  4131  0019CE  0777               	decf	(utoa@p+1)& (0+255),f,b
  4132  0019D0                     
  4133                           ; BSR set to: 0
  4134                           ;/Applications/microchip/xc8/v2.30/pic/sources/c99/common/doprnt.c: 635:         --w;
  4135  0019D0  0778               	decf	utoa@w& (0+255),f,b
  4136  0019D2  A0D8               	btfss	status,0,c
  4137  0019D4  0779               	decf	(utoa@w+1)& (0+255),f,b
  4138  0019D6                     
  4139                           ; BSR set to: 0
  4140                           ;/Applications/microchip/xc8/v2.30/pic/sources/c99/common/doprnt.c: 636:         n = n /
      +                           10;
  4141  0019D6  C07A  F018         	movff	utoa@n,___lodiv@dividend
  4142  0019DA  C07B  F019         	movff	utoa@n+1,___lodiv@dividend+1
  4143  0019DE  C07C  F01A         	movff	utoa@n+2,___lodiv@dividend+2
  4144  0019E2  C07D  F01B         	movff	utoa@n+3,___lodiv@dividend+3
  4145  0019E6  C07E  F01C         	movff	utoa@n+4,___lodiv@dividend+4
  4146  0019EA  C07F  F01D         	movff	utoa@n+5,___lodiv@dividend+5
  4147  0019EE  C080  F01E         	movff	utoa@n+6,___lodiv@dividend+6
  4148  0019F2  C081  F01F         	movff	utoa@n+7,___lodiv@dividend+7
  4149  0019F6  0E0A               	movlw	10
  4150  0019F8  6E20               	movwf	___lodiv@divisor^0,c
  4151  0019FA  0E00               	movlw	0
  4152  0019FC  6E21               	movwf	(___lodiv@divisor+1)^0,c
  4153  0019FE  0E00               	movlw	0
  4154  001A00  6E22               	movwf	(___lodiv@divisor+2)^0,c
  4155  001A02  0E00               	movlw	0
  4156  001A04  6E23               	movwf	(___lodiv@divisor+3)^0,c
  4157  001A06  0E00               	movlw	0
  4158  001A08  6E24               	movwf	(___lodiv@divisor+4)^0,c
  4159  001A0A  0E00               	movlw	0
  4160  001A0C  6E25               	movwf	(___lodiv@divisor+5)^0,c
  4161  001A0E  0E00               	movlw	0
  4162  001A10  6E26               	movwf	(___lodiv@divisor+6)^0,c
  4163  001A12  0E00               	movlw	0
  4164  001A14  6E27               	movwf	(___lodiv@divisor+7)^0,c
  4165  001A16  EC9E  F012         	call	___lodiv	;wreg free
  4166  001A1A  C018  F07A         	movff	?___lodiv,utoa@n
  4167  001A1E  C019  F07B         	movff	?___lodiv+1,utoa@n+1
  4168  001A22  C01A  F07C         	movff	?___lodiv+2,utoa@n+2
  4169  001A26  C01B  F07D         	movff	?___lodiv+3,utoa@n+3
  4170  001A2A  C01C  F07E         	movff	?___lodiv+4,utoa@n+4
  4171  001A2E  C01D  F07F         	movff	?___lodiv+5,utoa@n+5
  4172  001A32  C01E  F080         	movff	?___lodiv+6,utoa@n+6
  4173  001A36  C01F  F081         	movff	?___lodiv+7,utoa@n+7
  4174  001A3A                     l3299:
  4175                           
  4176                           ;/Applications/microchip/xc8/v2.30/pic/sources/c99/common/doprnt.c: 631:     while (i &&
      +                           (n || (0 < p) || ((0 < w) && (flags & (1 << 1))))) {
  4177  001A3A  0100               	movlb	0	; () banked
  4178  001A3C  5182               	movf	utoa@i& (0+255),w,b
  4179  001A3E  1183               	iorwf	(utoa@i+1)& (0+255),w,b
  4180  001A40  B4D8               	btfsc	status,2,c
  4181  001A42  EF25  F00D         	goto	u2991
  4182  001A46  EF27  F00D         	goto	u2990
  4183  001A4A                     u2991:
  4184  001A4A  EF57  F00D         	goto	l3309
  4185  001A4E                     u2990:
  4186  001A4E                     
  4187                           ; BSR set to: 0
  4188  001A4E  517A               	movf	utoa@n& (0+255),w,b
  4189  001A50  117B               	iorwf	(utoa@n+1)& (0+255),w,b
  4190  001A52  117C               	iorwf	(utoa@n+2)& (0+255),w,b
  4191  001A54  117D               	iorwf	(utoa@n+3)& (0+255),w,b
  4192  001A56  117E               	iorwf	(utoa@n+4)& (0+255),w,b
  4193  001A58  117F               	iorwf	(utoa@n+5)& (0+255),w,b
  4194  001A5A  1180               	iorwf	(utoa@n+6)& (0+255),w,b
  4195  001A5C  1181               	iorwf	(utoa@n+7)& (0+255),w,b
  4196  001A5E  A4D8               	btfss	status,2,c
  4197  001A60  EF34  F00D         	goto	u3001
  4198  001A64  EF36  F00D         	goto	u3000
  4199  001A68                     u3001:
  4200  001A68  EFA6  F00C         	goto	l3289
  4201  001A6C                     u3000:
  4202  001A6C                     
  4203                           ; BSR set to: 0
  4204  001A6C  BF77               	btfsc	(utoa@p+1)& (0+255),7,b
  4205  001A6E  EF43  F00D         	goto	u3010
  4206  001A72  5177               	movf	(utoa@p+1)& (0+255),w,b
  4207  001A74  E106               	bnz	u3011
  4208  001A76  0576               	decf	utoa@p& (0+255),w,b
  4209  001A78  B0D8               	btfsc	status,0,c
  4210  001A7A  EF41  F00D         	goto	u3011
  4211  001A7E  EF43  F00D         	goto	u3010
  4212  001A82                     u3011:
  4213  001A82  EFA6  F00C         	goto	l3289
  4214  001A86                     u3010:
  4215  001A86                     
  4216                           ; BSR set to: 0
  4217  001A86  BF79               	btfsc	(utoa@w+1)& (0+255),7,b
  4218  001A88  EF4E  F00D         	goto	u3021
  4219  001A8C  5179               	movf	(utoa@w+1)& (0+255),w,b
  4220  001A8E  E108               	bnz	u3020
  4221  001A90  0578               	decf	utoa@w& (0+255),w,b
  4222  001A92  A0D8               	btfss	status,0,c
  4223  001A94  EF4E  F00D         	goto	u3021
  4224  001A98  EF50  F00D         	goto	u3020
  4225  001A9C                     u3021:
  4226  001A9C  EF57  F00D         	goto	l3309
  4227  001AA0                     u3020:
  4228  001AA0                     
  4229                           ; BSR set to: 0
  4230  001AA0  B23B               	btfsc	_flags^0,1,c
  4231  001AA2  EF55  F00D         	goto	u3031
  4232  001AA6  EF57  F00D         	goto	u3030
  4233  001AAA                     u3031:
  4234  001AAA  EFA6  F00C         	goto	l3289
  4235  001AAE                     u3030:
  4236  001AAE                     l3309:
  4237                           
  4238                           ; BSR set to: 0
  4239                           ;/Applications/microchip/xc8/v2.30/pic/sources/c99/common/doprnt.c: 640:     return pad(
      +                          fp, &dbuf[i], w);
  4240  001AAE  C064  F028         	movff	utoa@fp,pad@fp
  4241  001AB2  C065  F029         	movff	utoa@fp+1,pad@fp+1
  4242  001AB6  0ECC               	movlw	low _dbuf
  4243  001AB8  2582               	addwf	utoa@i& (0+255),w,b
  4244  001ABA  6E2A               	movwf	pad@buf^0,c
  4245  001ABC  0E01               	movlw	high _dbuf
  4246  001ABE  2183               	addwfc	(utoa@i+1)& (0+255),w,b
  4247  001AC0  6E2B               	movwf	(pad@buf+1)^0,c
  4248  001AC2  C078  F02C         	movff	utoa@w,pad@p
  4249  001AC6  C079  F02D         	movff	utoa@w+1,pad@p+1
  4250  001ACA  ECE8  F013         	call	_pad	;wreg free
  4251  001ACE  C028  F064         	movff	?_pad,?_utoa
  4252  001AD2  C029  F065         	movff	?_pad+1,?_utoa+1
  4253  001AD6  0012               	return		;funcret
  4254  001AD8                     __end_of_utoa:
  4255                           	callstack 0
  4256                           
  4257 ;; *************** function _pad *****************
  4258 ;; Defined at:
  4259 ;;		line 72 in file "/Applications/microchip/xc8/v2.30/pic/sources/c99/common/doprnt.c"
  4260 ;; Parameters:    Size  Location     Type
  4261 ;;  fp              2   39[COMRAM] PTR struct _IO_FILE
  4262 ;;		 -> sprintf@f(6), 
  4263 ;;  buf             2   41[COMRAM] PTR unsigned char 
  4264 ;;		 -> dbuf(32), 
  4265 ;;  p               2   43[COMRAM] int 
  4266 ;; Auto vars:     Size  Location     Type
  4267 ;;  w               2    2[BANK0 ] int 
  4268 ;;  i               2    0[BANK0 ] int 
  4269 ;; Return value:  Size  Location     Type
  4270 ;;                  2   39[COMRAM] int 
  4271 ;; Registers used:
  4272 ;;		wreg, fsr1l, fsr1h, fsr2l, fsr2h, status,2, status,0, cstack
  4273 ;; Tracked objects:
  4274 ;;		On entry : 0/0
  4275 ;;		On exit  : 0/0
  4276 ;;		Unchanged: 0/0
  4277 ;; Data sizes:     COMRAM   BANK0   BANK1   BANK2   BANK3   BANK4   BANK5   BANK6   BANK7   BANK8   BANK9  BANK10  BANK1
      +1  BANK12  BANK13  BANK14  BANK15
  4278 ;;      Params:         6       0       0       0       0       0       0       0       0       0       0       0       
      +0       0       0       0       0
  4279 ;;      Locals:         0       4       0       0       0       0       0       0       0       0       0       0       
      +0       0       0       0       0
  4280 ;;      Temps:          1       0       0       0       0       0       0       0       0       0       0       0       
      +0       0       0       0       0
  4281 ;;      Totals:         7       4       0       0       0       0       0       0       0       0       0       0       
      +0       0       0       0       0
  4282 ;;Total ram usage:       11 bytes
  4283 ;; Hardware stack levels used:    1
  4284 ;; Hardware stack levels required when called:    6
  4285 ;; This function calls:
  4286 ;;		_fputc
  4287 ;;		_fputs
  4288 ;;		_strlen
  4289 ;; This function is called by:
  4290 ;;		_utoa
  4291 ;; This function uses a non-reentrant model
  4292 ;;
  4293                           
  4294                           	psect	text15
  4295  0027D0                     __ptext15:
  4296                           	callstack 0
  4297  0027D0                     _pad:
  4298                           	callstack 19
  4299  0027D0                     
  4300                           ;/Applications/microchip/xc8/v2.30/pic/sources/c99/common/doprnt.c: 72: static int pad(F
      +                          ILE *fp, char *buf, int p);/Applications/microchip/xc8/v2.30/pic/sources/c99/common/dopr
      +                          nt.c: 73: {;/Applications/microchip/xc8/v2.30/pic/sources/c99/common/doprnt.c: 74:     i
      +                          nt i, w;;/Applications/microchip/xc8/v2.30/pic/sources/c99/common/doprnt.c: 77:     if (
      +                          flags & (1 << 0)) {
  4301  0027D0  A03B               	btfss	_flags^0,0,c
  4302  0027D2  EFED  F013         	goto	u2841
  4303  0027D6  EFEF  F013         	goto	u2840
  4304  0027DA                     u2841:
  4305  0027DA  EFF9  F013         	goto	l3215
  4306  0027DE                     u2840:
  4307  0027DE                     
  4308                           ;/Applications/microchip/xc8/v2.30/pic/sources/c99/common/doprnt.c: 78:         fputs((c
      +                          onst char *)buf, fp);
  4309  0027DE  C02A  F021         	movff	pad@buf,fputs@s
  4310  0027E2  C02B  F022         	movff	pad@buf+1,fputs@s+1
  4311  0027E6  C028  F023         	movff	pad@fp,fputs@fp
  4312  0027EA  C029  F024         	movff	pad@fp+1,fputs@fp+1
  4313  0027EE  ECC6  F017         	call	_fputs	;wreg free
  4314  0027F2                     l3215:
  4315                           
  4316                           ;/Applications/microchip/xc8/v2.30/pic/sources/c99/common/doprnt.c: 82:     w = (p < 0) 
      +                          ? 0 : p;
  4317  0027F2  BE2D               	btfsc	(pad@p+1)^0,7,c
  4318  0027F4  EFFE  F013         	goto	u2851
  4319  0027F8  EF00  F014         	goto	u2850
  4320  0027FC                     u2851:
  4321  0027FC  EF06  F014         	goto	l3219
  4322  002800                     u2850:
  4323  002800  C02C  F062         	movff	pad@p,pad@w
  4324  002804  C02D  F063         	movff	pad@p+1,pad@w+1
  4325  002808  EF0B  F014         	goto	l1026
  4326  00280C                     l3219:
  4327  00280C  0E00               	movlw	0
  4328  00280E  0100               	movlb	0	; () banked
  4329  002810  6F63               	movwf	(pad@w+1)& (0+255),b
  4330  002812  0E00               	movlw	0
  4331  002814  6F62               	movwf	pad@w& (0+255),b
  4332  002816                     l1026:
  4333                           
  4334                           ;/Applications/microchip/xc8/v2.30/pic/sources/c99/common/doprnt.c: 83:     i = 0;
  4335  002816  0E00               	movlw	0
  4336  002818  0100               	movlb	0	; () banked
  4337  00281A  6F61               	movwf	(pad@i+1)& (0+255),b
  4338  00281C  0E00               	movlw	0
  4339  00281E  6F60               	movwf	pad@i& (0+255),b
  4340                           
  4341                           ;/Applications/microchip/xc8/v2.30/pic/sources/c99/common/doprnt.c: 84:     while (i < w
      +                          ) {
  4342  002820  EF1F  F014         	goto	l3225
  4343  002824                     l3221:
  4344                           
  4345                           ; BSR set to: 0
  4346                           ;/Applications/microchip/xc8/v2.30/pic/sources/c99/common/doprnt.c: 85:         fputc(' 
      +                          ', fp);
  4347  002824  0E00               	movlw	0
  4348  002826  6E19               	movwf	(fputc@c+1)^0,c
  4349  002828  0E20               	movlw	32
  4350  00282A  6E18               	movwf	fputc@c^0,c
  4351  00282C  C028  F01A         	movff	pad@fp,fputc@fp
  4352  002830  C029  F01B         	movff	pad@fp+1,fputc@fp+1
  4353  002834  EC4D  F014         	call	_fputc	;wreg free
  4354  002838                     
  4355                           ;/Applications/microchip/xc8/v2.30/pic/sources/c99/common/doprnt.c: 86:         ++i;
  4356  002838  0100               	movlb	0	; () banked
  4357  00283A  4B60               	infsnz	pad@i& (0+255),f,b
  4358  00283C  2B61               	incf	(pad@i+1)& (0+255),f,b
  4359  00283E                     l3225:
  4360                           
  4361                           ; BSR set to: 0
  4362                           ;/Applications/microchip/xc8/v2.30/pic/sources/c99/common/doprnt.c: 84:     while (i < w
      +                          ) {
  4363  00283E  5162               	movf	pad@w& (0+255),w,b
  4364  002840  5D60               	subwf	pad@i& (0+255),w,b
  4365  002842  5161               	movf	(pad@i+1)& (0+255),w,b
  4366  002844  0A80               	xorlw	128
  4367  002846  6E2E               	movwf	??_pad^0,c
  4368  002848  5163               	movf	(pad@w+1)& (0+255),w,b
  4369  00284A  0A80               	xorlw	128
  4370  00284C  582E               	subwfb	??_pad^0,w,c
  4371  00284E  A0D8               	btfss	status,0,c
  4372  002850  EF2C  F014         	goto	u2861
  4373  002854  EF2E  F014         	goto	u2860
  4374  002858                     u2861:
  4375  002858  EF12  F014         	goto	l3221
  4376  00285C                     u2860:
  4377  00285C                     
  4378                           ; BSR set to: 0
  4379                           ;/Applications/microchip/xc8/v2.30/pic/sources/c99/common/doprnt.c: 90:     if (!(flags 
      +                          & (1 << 0))) {
  4380  00285C  B03B               	btfsc	_flags^0,0,c
  4381  00285E  EF33  F014         	goto	u2871
  4382  002862  EF35  F014         	goto	u2870
  4383  002866                     u2871:
  4384  002866  EF3F  F014         	goto	l3229
  4385  00286A                     u2870:
  4386  00286A                     
  4387                           ; BSR set to: 0
  4388                           ;/Applications/microchip/xc8/v2.30/pic/sources/c99/common/doprnt.c: 91:         fputs((c
      +                          onst char *)buf, fp);
  4389  00286A  C02A  F021         	movff	pad@buf,fputs@s
  4390  00286E  C02B  F022         	movff	pad@buf+1,fputs@s+1
  4391  002872  C028  F023         	movff	pad@fp,fputs@fp
  4392  002876  C029  F024         	movff	pad@fp+1,fputs@fp+1
  4393  00287A  ECC6  F017         	call	_fputs	;wreg free
  4394  00287E                     l3229:
  4395                           
  4396                           ;/Applications/microchip/xc8/v2.30/pic/sources/c99/common/doprnt.c: 94:     return (int)
      +                          (strlen(buf) + (size_t)w);
  4397  00287E  C02A  F018         	movff	pad@buf,strlen@s
  4398  002882  C02B  F019         	movff	pad@buf+1,strlen@s+1
  4399  002886  EC7C  F018         	call	_strlen	;wreg free
  4400  00288A  0100               	movlb	0	; () banked
  4401  00288C  5162               	movf	pad@w& (0+255),w,b
  4402  00288E  2418               	addwf	?_strlen^0,w,c
  4403  002890  6E28               	movwf	?_pad^0,c
  4404  002892  5163               	movf	(pad@w+1)& (0+255),w,b
  4405  002894  2019               	addwfc	(?_strlen+1)^0,w,c
  4406  002896  6E29               	movwf	(?_pad+1)^0,c
  4407  002898                     
  4408                           ; BSR set to: 0
  4409  002898  0012               	return		;funcret
  4410  00289A                     __end_of_pad:
  4411                           	callstack 0
  4412                           
  4413 ;; *************** function _strlen *****************
  4414 ;; Defined at:
  4415 ;;		line 5 in file "/Applications/microchip/xc8/v2.30/pic/sources/c99/common/strlen.c"
  4416 ;; Parameters:    Size  Location     Type
  4417 ;;  s               2   23[COMRAM] PTR const unsigned char 
  4418 ;;		 -> dbuf(32), 
  4419 ;; Auto vars:     Size  Location     Type
  4420 ;;  a               2   25[COMRAM] PTR const unsigned char 
  4421 ;;		 -> dbuf(32), 
  4422 ;; Return value:  Size  Location     Type
  4423 ;;                  2   23[COMRAM] unsigned int 
  4424 ;; Registers used:
  4425 ;;		wreg, fsr2l, fsr2h, status,2, status,0
  4426 ;; Tracked objects:
  4427 ;;		On entry : 0/0
  4428 ;;		On exit  : 0/0
  4429 ;;		Unchanged: 0/0
  4430 ;; Data sizes:     COMRAM   BANK0   BANK1   BANK2   BANK3   BANK4   BANK5   BANK6   BANK7   BANK8   BANK9  BANK10  BANK1
      +1  BANK12  BANK13  BANK14  BANK15
  4431 ;;      Params:         2       0       0       0       0       0       0       0       0       0       0       0       
      +0       0       0       0       0
  4432 ;;      Locals:         2       0       0       0       0       0       0       0       0       0       0       0       
      +0       0       0       0       0
  4433 ;;      Temps:          0       0       0       0       0       0       0       0       0       0       0       0       
      +0       0       0       0       0
  4434 ;;      Totals:         4       0       0       0       0       0       0       0       0       0       0       0       
      +0       0       0       0       0
  4435 ;;Total ram usage:        4 bytes
  4436 ;; Hardware stack levels used:    1
  4437 ;; Hardware stack levels required when called:    3
  4438 ;; This function calls:
  4439 ;;		Nothing
  4440 ;; This function is called by:
  4441 ;;		_pad
  4442 ;; This function uses a non-reentrant model
  4443 ;;
  4444                           
  4445                           	psect	text16
  4446  0030F8                     __ptext16:
  4447                           	callstack 0
  4448  0030F8                     _strlen:
  4449                           	callstack 21
  4450  0030F8  C018  F01A         	movff	strlen@s,strlen@a
  4451  0030FC  C019  F01B         	movff	strlen@s+1,strlen@a+1
  4452  003100  EF84  F018         	goto	l3161
  4453  003104                     l3159:
  4454  003104  4A18               	infsnz	strlen@s^0,f,c
  4455  003106  2A19               	incf	(strlen@s+1)^0,f,c
  4456  003108                     l3161:
  4457  003108  C018  FFD9         	movff	strlen@s,fsr2l
  4458  00310C  C019  FFDA         	movff	strlen@s+1,fsr2h
  4459  003110  50DF               	movf	indf2,w,c
  4460  003112  A4D8               	btfss	status,2,c
  4461  003114  EF8E  F018         	goto	u2761
  4462  003118  EF90  F018         	goto	u2760
  4463  00311C                     u2761:
  4464  00311C  EF82  F018         	goto	l3159
  4465  003120                     u2760:
  4466  003120  501A               	movf	strlen@a^0,w,c
  4467  003122  5C18               	subwf	strlen@s^0,w,c
  4468  003124  6E18               	movwf	?_strlen^0,c
  4469  003126  501B               	movf	(strlen@a+1)^0,w,c
  4470  003128  5819               	subwfb	(strlen@s+1)^0,w,c
  4471  00312A  6E19               	movwf	(?_strlen+1)^0,c
  4472  00312C  0012               	return		;funcret
  4473  00312E                     __end_of_strlen:
  4474                           	callstack 0
  4475                           
  4476 ;; *************** function _fputs *****************
  4477 ;; Defined at:
  4478 ;;		line 8 in file "/Applications/microchip/xc8/v2.30/pic/sources/c99/common/nf_fputs.c"
  4479 ;; Parameters:    Size  Location     Type
  4480 ;;  s               2   32[COMRAM] PTR const unsigned char 
  4481 ;;		 -> dbuf(32), 
  4482 ;;  fp              2   34[COMRAM] PTR struct _IO_FILE
  4483 ;;		 -> sprintf@f(6), 
  4484 ;; Auto vars:     Size  Location     Type
  4485 ;;  i               2   37[COMRAM] int 
  4486 ;;  c               1   36[COMRAM] unsigned char 
  4487 ;; Return value:  Size  Location     Type
  4488 ;;                  2   32[COMRAM] int 
  4489 ;; Registers used:
  4490 ;;		wreg, fsr1l, fsr1h, fsr2l, fsr2h, status,2, status,0, cstack
  4491 ;; Tracked objects:
  4492 ;;		On entry : 0/0
  4493 ;;		On exit  : 0/0
  4494 ;;		Unchanged: 0/0
  4495 ;; Data sizes:     COMRAM   BANK0   BANK1   BANK2   BANK3   BANK4   BANK5   BANK6   BANK7   BANK8   BANK9  BANK10  BANK1
      +1  BANK12  BANK13  BANK14  BANK15
  4496 ;;      Params:         4       0       0       0       0       0       0       0       0       0       0       0       
      +0       0       0       0       0
  4497 ;;      Locals:         3       0       0       0       0       0       0       0       0       0       0       0       
      +0       0       0       0       0
  4498 ;;      Temps:          0       0       0       0       0       0       0       0       0       0       0       0       
      +0       0       0       0       0
  4499 ;;      Totals:         7       0       0       0       0       0       0       0       0       0       0       0       
      +0       0       0       0       0
  4500 ;;Total ram usage:        7 bytes
  4501 ;; Hardware stack levels used:    1
  4502 ;; Hardware stack levels required when called:    5
  4503 ;; This function calls:
  4504 ;;		_fputc
  4505 ;; This function is called by:
  4506 ;;		_pad
  4507 ;; This function uses a non-reentrant model
  4508 ;;
  4509                           
  4510                           	psect	text17
  4511  002F8C                     __ptext17:
  4512                           	callstack 0
  4513  002F8C                     _fputs:
  4514                           	callstack 19
  4515  002F8C  0E00               	movlw	0
  4516  002F8E  6E27               	movwf	(fputs@i+1)^0,c
  4517  002F90  0E00               	movlw	0
  4518  002F92  6E26               	movwf	fputs@i^0,c
  4519  002F94  EFD7  F017         	goto	l3155
  4520  002F98                     l3151:
  4521  002F98  C025  F018         	movff	fputs@c,fputc@c
  4522  002F9C  6A19               	clrf	(fputc@c+1)^0,c
  4523  002F9E  C023  F01A         	movff	fputs@fp,fputc@fp
  4524  002FA2  C024  F01B         	movff	fputs@fp+1,fputc@fp+1
  4525  002FA6  EC4D  F014         	call	_fputc	;wreg free
  4526  002FAA  4A26               	infsnz	fputs@i^0,f,c
  4527  002FAC  2A27               	incf	(fputs@i+1)^0,f,c
  4528  002FAE                     l3155:
  4529  002FAE  5026               	movf	fputs@i^0,w,c
  4530  002FB0  2421               	addwf	fputs@s^0,w,c
  4531  002FB2  6ED9               	movwf	fsr2l,c
  4532  002FB4  5027               	movf	(fputs@i+1)^0,w,c
  4533  002FB6  2022               	addwfc	(fputs@s+1)^0,w,c
  4534  002FB8  6EDA               	movwf	fsr2h,c
  4535  002FBA  50DF               	movf	indf2,w,c
  4536  002FBC  6E25               	movwf	fputs@c^0,c
  4537  002FBE  5025               	movf	fputs@c^0,w,c
  4538  002FC0  A4D8               	btfss	status,2,c
  4539  002FC2  EFE5  F017         	goto	u2751
  4540  002FC6  EFE7  F017         	goto	u2750
  4541  002FCA                     u2751:
  4542  002FCA  EFCC  F017         	goto	l3151
  4543  002FCE                     u2750:
  4544  002FCE  0012               	return		;funcret
  4545  002FD0                     __end_of_fputs:
  4546                           	callstack 0
  4547                           
  4548 ;; *************** function ___lomod *****************
  4549 ;; Defined at:
  4550 ;;		line 9 in file "/Applications/microchip/xc8/v2.30/pic/sources/c99/common/lomod.c"
  4551 ;; Parameters:    Size  Location     Type
  4552 ;;  dividend        8   23[COMRAM] unsigned long long 
  4553 ;;  divisor         8   31[COMRAM] unsigned long long 
  4554 ;; Auto vars:     Size  Location     Type
  4555 ;;  counter         1   39[COMRAM] unsigned char 
  4556 ;; Return value:  Size  Location     Type
  4557 ;;                  8   23[COMRAM] unsigned long long 
  4558 ;; Registers used:
  4559 ;;		wreg, status,2, status,0
  4560 ;; Tracked objects:
  4561 ;;		On entry : 0/0
  4562 ;;		On exit  : 0/0
  4563 ;;		Unchanged: 0/0
  4564 ;; Data sizes:     COMRAM   BANK0   BANK1   BANK2   BANK3   BANK4   BANK5   BANK6   BANK7   BANK8   BANK9  BANK10  BANK1
      +1  BANK12  BANK13  BANK14  BANK15
  4565 ;;      Params:        16       0       0       0       0       0       0       0       0       0       0       0       
      +0       0       0       0       0
  4566 ;;      Locals:         1       0       0       0       0       0       0       0       0       0       0       0       
      +0       0       0       0       0
  4567 ;;      Temps:          0       0       0       0       0       0       0       0       0       0       0       0       
      +0       0       0       0       0
  4568 ;;      Totals:        17       0       0       0       0       0       0       0       0       0       0       0       
      +0       0       0       0       0
  4569 ;;Total ram usage:       17 bytes
  4570 ;; Hardware stack levels used:    1
  4571 ;; Hardware stack levels required when called:    3
  4572 ;; This function calls:
  4573 ;;		Nothing
  4574 ;; This function is called by:
  4575 ;;		_utoa
  4576 ;; This function uses a non-reentrant model
  4577 ;;
  4578                           
  4579                           	psect	text18
  4580  002700                     __ptext18:
  4581                           	callstack 0
  4582  002700                     ___lomod:
  4583                           	callstack 22
  4584  002700  5020               	movf	___lomod@divisor^0,w,c
  4585  002702  1021               	iorwf	(___lomod@divisor+1)^0,w,c
  4586  002704  1022               	iorwf	(___lomod@divisor+2)^0,w,c
  4587  002706  1023               	iorwf	(___lomod@divisor+3)^0,w,c
  4588  002708  1024               	iorwf	(___lomod@divisor+4)^0,w,c
  4589  00270A  1025               	iorwf	(___lomod@divisor+5)^0,w,c
  4590  00270C  1026               	iorwf	(___lomod@divisor+6)^0,w,c
  4591  00270E  1027               	iorwf	(___lomod@divisor+7)^0,w,c
  4592  002710  B4D8               	btfsc	status,2,c
  4593  002712  EF8D  F013         	goto	u2811
  4594  002716  EF8F  F013         	goto	u2810
  4595  00271A                     u2811:
  4596  00271A  EFD7  F013         	goto	l767
  4597  00271E                     u2810:
  4598  00271E  0E01               	movlw	1
  4599  002720  6E28               	movwf	___lomod@counter^0,c
  4600  002722  EF9D  F013         	goto	l3201
  4601  002726                     l3199:
  4602  002726  90D8               	bcf	status,0,c
  4603  002728  3620               	rlcf	___lomod@divisor^0,f,c
  4604  00272A  3621               	rlcf	(___lomod@divisor+1)^0,f,c
  4605  00272C  3622               	rlcf	(___lomod@divisor+2)^0,f,c
  4606  00272E  3623               	rlcf	(___lomod@divisor+3)^0,f,c
  4607  002730  3624               	rlcf	(___lomod@divisor+4)^0,f,c
  4608  002732  3625               	rlcf	(___lomod@divisor+5)^0,f,c
  4609  002734  3626               	rlcf	(___lomod@divisor+6)^0,f,c
  4610  002736  3627               	rlcf	(___lomod@divisor+7)^0,f,c
  4611  002738  2A28               	incf	___lomod@counter^0,f,c
  4612  00273A                     l3201:
  4613  00273A  AE27               	btfss	(___lomod@divisor+7)^0,7,c
  4614  00273C  EFA2  F013         	goto	u2821
  4615  002740  EFA4  F013         	goto	u2820
  4616  002744                     u2821:
  4617  002744  EF93  F013         	goto	l3199
  4618  002748                     u2820:
  4619  002748                     l3203:
  4620  002748  5020               	movf	___lomod@divisor^0,w,c
  4621  00274A  5C18               	subwf	___lomod@dividend^0,w,c
  4622  00274C  5021               	movf	(___lomod@divisor+1)^0,w,c
  4623  00274E  5819               	subwfb	(___lomod@dividend+1)^0,w,c
  4624  002750  5022               	movf	(___lomod@divisor+2)^0,w,c
  4625  002752  581A               	subwfb	(___lomod@dividend+2)^0,w,c
  4626  002754  5023               	movf	(___lomod@divisor+3)^0,w,c
  4627  002756  581B               	subwfb	(___lomod@dividend+3)^0,w,c
  4628  002758  5024               	movf	(___lomod@divisor+4)^0,w,c
  4629  00275A  581C               	subwfb	(___lomod@dividend+4)^0,w,c
  4630  00275C  5025               	movf	(___lomod@divisor+5)^0,w,c
  4631  00275E  581D               	subwfb	(___lomod@dividend+5)^0,w,c
  4632  002760  5026               	movf	(___lomod@divisor+6)^0,w,c
  4633  002762  581E               	subwfb	(___lomod@dividend+6)^0,w,c
  4634  002764  5027               	movf	(___lomod@divisor+7)^0,w,c
  4635  002766  581F               	subwfb	(___lomod@dividend+7)^0,w,c
  4636  002768  A0D8               	btfss	status,0,c
  4637  00276A  EFB9  F013         	goto	u2831
  4638  00276E  EFBB  F013         	goto	u2830
  4639  002772                     u2831:
  4640  002772  EFCB  F013         	goto	l3207
  4641  002776                     u2830:
  4642  002776  5020               	movf	___lomod@divisor^0,w,c
  4643  002778  5E18               	subwf	___lomod@dividend^0,f,c
  4644  00277A  5021               	movf	(___lomod@divisor+1)^0,w,c
  4645  00277C  5A19               	subwfb	(___lomod@dividend+1)^0,f,c
  4646  00277E  5022               	movf	(___lomod@divisor+2)^0,w,c
  4647  002780  5A1A               	subwfb	(___lomod@dividend+2)^0,f,c
  4648  002782  5023               	movf	(___lomod@divisor+3)^0,w,c
  4649  002784  5A1B               	subwfb	(___lomod@dividend+3)^0,f,c
  4650  002786  5024               	movf	(___lomod@divisor+4)^0,w,c
  4651  002788  5A1C               	subwfb	(___lomod@dividend+4)^0,f,c
  4652  00278A  5025               	movf	(___lomod@divisor+5)^0,w,c
  4653  00278C  5A1D               	subwfb	(___lomod@dividend+5)^0,f,c
  4654  00278E  5026               	movf	(___lomod@divisor+6)^0,w,c
  4655  002790  5A1E               	subwfb	(___lomod@dividend+6)^0,f,c
  4656  002792  5027               	movf	(___lomod@divisor+7)^0,w,c
  4657  002794  5A1F               	subwfb	(___lomod@dividend+7)^0,f,c
  4658  002796                     l3207:
  4659  002796  90D8               	bcf	status,0,c
  4660  002798  3227               	rrcf	(___lomod@divisor+7)^0,f,c
  4661  00279A  3226               	rrcf	(___lomod@divisor+6)^0,f,c
  4662  00279C  3225               	rrcf	(___lomod@divisor+5)^0,f,c
  4663  00279E  3224               	rrcf	(___lomod@divisor+4)^0,f,c
  4664  0027A0  3223               	rrcf	(___lomod@divisor+3)^0,f,c
  4665  0027A2  3222               	rrcf	(___lomod@divisor+2)^0,f,c
  4666  0027A4  3221               	rrcf	(___lomod@divisor+1)^0,f,c
  4667  0027A6  3220               	rrcf	___lomod@divisor^0,f,c
  4668  0027A8  2E28               	decfsz	___lomod@counter^0,f,c
  4669  0027AA  EFA4  F013         	goto	l3203
  4670  0027AE                     l767:
  4671  0027AE  C018  F018         	movff	___lomod@dividend,?___lomod
  4672  0027B2  C019  F019         	movff	___lomod@dividend+1,?___lomod+1
  4673  0027B6  C01A  F01A         	movff	___lomod@dividend+2,?___lomod+2
  4674  0027BA  C01B  F01B         	movff	___lomod@dividend+3,?___lomod+3
  4675  0027BE  C01C  F01C         	movff	___lomod@dividend+4,?___lomod+4
  4676  0027C2  C01D  F01D         	movff	___lomod@dividend+5,?___lomod+5
  4677  0027C6  C01E  F01E         	movff	___lomod@dividend+6,?___lomod+6
  4678  0027CA  C01F  F01F         	movff	___lomod@dividend+7,?___lomod+7
  4679  0027CE  0012               	return		;funcret
  4680  0027D0                     __end_of___lomod:
  4681                           	callstack 0
  4682                           
  4683 ;; *************** function ___lodiv *****************
  4684 ;; Defined at:
  4685 ;;		line 9 in file "/Applications/microchip/xc8/v2.30/pic/sources/c99/common/lodiv.c"
  4686 ;; Parameters:    Size  Location     Type
  4687 ;;  dividend        8   23[COMRAM] unsigned long long 
  4688 ;;  divisor         8   31[COMRAM] unsigned long long 
  4689 ;; Auto vars:     Size  Location     Type
  4690 ;;  quotient        8   39[COMRAM] unsigned long long 
  4691 ;;  counter         1   47[COMRAM] unsigned char 
  4692 ;; Return value:  Size  Location     Type
  4693 ;;                  8   23[COMRAM] unsigned long long 
  4694 ;; Registers used:
  4695 ;;		wreg, fsr2l, fsr2h, status,2, status,0
  4696 ;; Tracked objects:
  4697 ;;		On entry : 0/0
  4698 ;;		On exit  : 0/0
  4699 ;;		Unchanged: 0/0
  4700 ;; Data sizes:     COMRAM   BANK0   BANK1   BANK2   BANK3   BANK4   BANK5   BANK6   BANK7   BANK8   BANK9  BANK10  BANK1
      +1  BANK12  BANK13  BANK14  BANK15
  4701 ;;      Params:        16       0       0       0       0       0       0       0       0       0       0       0       
      +0       0       0       0       0
  4702 ;;      Locals:         9       0       0       0       0       0       0       0       0       0       0       0       
      +0       0       0       0       0
  4703 ;;      Temps:          0       0       0       0       0       0       0       0       0       0       0       0       
      +0       0       0       0       0
  4704 ;;      Totals:        25       0       0       0       0       0       0       0       0       0       0       0       
      +0       0       0       0       0
  4705 ;;Total ram usage:       25 bytes
  4706 ;; Hardware stack levels used:    1
  4707 ;; Hardware stack levels required when called:    3
  4708 ;; This function calls:
  4709 ;;		Nothing
  4710 ;; This function is called by:
  4711 ;;		_utoa
  4712 ;; This function uses a non-reentrant model
  4713 ;;
  4714                           
  4715                           	psect	text19
  4716  00253C                     __ptext19:
  4717                           	callstack 0
  4718  00253C                     ___lodiv:
  4719                           	callstack 22
  4720  00253C  EE20  F028         	lfsr	2,___lodiv@quotient
  4721  002540  0E07               	movlw	7
  4722  002542                     u2771:
  4723  002542  6ADE               	clrf	postinc2,c
  4724  002544  06E8               	decf	wreg,f,c
  4725  002546  E2FD               	bc	u2771
  4726  002548  5020               	movf	___lodiv@divisor^0,w,c
  4727  00254A  1021               	iorwf	(___lodiv@divisor+1)^0,w,c
  4728  00254C  1022               	iorwf	(___lodiv@divisor+2)^0,w,c
  4729  00254E  1023               	iorwf	(___lodiv@divisor+3)^0,w,c
  4730  002550  1024               	iorwf	(___lodiv@divisor+4)^0,w,c
  4731  002552  1025               	iorwf	(___lodiv@divisor+5)^0,w,c
  4732  002554  1026               	iorwf	(___lodiv@divisor+6)^0,w,c
  4733  002556  1027               	iorwf	(___lodiv@divisor+7)^0,w,c
  4734  002558  B4D8               	btfsc	status,2,c
  4735  00255A  EFB1  F012         	goto	u2781
  4736  00255E  EFB3  F012         	goto	u2780
  4737  002562                     u2781:
  4738  002562  EF05  F013         	goto	l757
  4739  002566                     u2780:
  4740  002566  0E01               	movlw	1
  4741  002568  6E30               	movwf	___lodiv@counter^0,c
  4742  00256A  EFC1  F012         	goto	l3181
  4743  00256E                     l3179:
  4744  00256E  90D8               	bcf	status,0,c
  4745  002570  3620               	rlcf	___lodiv@divisor^0,f,c
  4746  002572  3621               	rlcf	(___lodiv@divisor+1)^0,f,c
  4747  002574  3622               	rlcf	(___lodiv@divisor+2)^0,f,c
  4748  002576  3623               	rlcf	(___lodiv@divisor+3)^0,f,c
  4749  002578  3624               	rlcf	(___lodiv@divisor+4)^0,f,c
  4750  00257A  3625               	rlcf	(___lodiv@divisor+5)^0,f,c
  4751  00257C  3626               	rlcf	(___lodiv@divisor+6)^0,f,c
  4752  00257E  3627               	rlcf	(___lodiv@divisor+7)^0,f,c
  4753  002580  2A30               	incf	___lodiv@counter^0,f,c
  4754  002582                     l3181:
  4755  002582  AE27               	btfss	(___lodiv@divisor+7)^0,7,c
  4756  002584  EFC6  F012         	goto	u2791
  4757  002588  EFC8  F012         	goto	u2790
  4758  00258C                     u2791:
  4759  00258C  EFB7  F012         	goto	l3179
  4760  002590                     u2790:
  4761  002590                     l3183:
  4762  002590  90D8               	bcf	status,0,c
  4763  002592  3628               	rlcf	___lodiv@quotient^0,f,c
  4764  002594  3629               	rlcf	(___lodiv@quotient+1)^0,f,c
  4765  002596  362A               	rlcf	(___lodiv@quotient+2)^0,f,c
  4766  002598  362B               	rlcf	(___lodiv@quotient+3)^0,f,c
  4767  00259A  362C               	rlcf	(___lodiv@quotient+4)^0,f,c
  4768  00259C  362D               	rlcf	(___lodiv@quotient+5)^0,f,c
  4769  00259E  362E               	rlcf	(___lodiv@quotient+6)^0,f,c
  4770  0025A0  362F               	rlcf	(___lodiv@quotient+7)^0,f,c
  4771  0025A2  5020               	movf	___lodiv@divisor^0,w,c
  4772  0025A4  5C18               	subwf	___lodiv@dividend^0,w,c
  4773  0025A6  5021               	movf	(___lodiv@divisor+1)^0,w,c
  4774  0025A8  5819               	subwfb	(___lodiv@dividend+1)^0,w,c
  4775  0025AA  5022               	movf	(___lodiv@divisor+2)^0,w,c
  4776  0025AC  581A               	subwfb	(___lodiv@dividend+2)^0,w,c
  4777  0025AE  5023               	movf	(___lodiv@divisor+3)^0,w,c
  4778  0025B0  581B               	subwfb	(___lodiv@dividend+3)^0,w,c
  4779  0025B2  5024               	movf	(___lodiv@divisor+4)^0,w,c
  4780  0025B4  581C               	subwfb	(___lodiv@dividend+4)^0,w,c
  4781  0025B6  5025               	movf	(___lodiv@divisor+5)^0,w,c
  4782  0025B8  581D               	subwfb	(___lodiv@dividend+5)^0,w,c
  4783  0025BA  5026               	movf	(___lodiv@divisor+6)^0,w,c
  4784  0025BC  581E               	subwfb	(___lodiv@dividend+6)^0,w,c
  4785  0025BE  5027               	movf	(___lodiv@divisor+7)^0,w,c
  4786  0025C0  581F               	subwfb	(___lodiv@dividend+7)^0,w,c
  4787  0025C2  A0D8               	btfss	status,0,c
  4788  0025C4  EFE6  F012         	goto	u2801
  4789  0025C8  EFE8  F012         	goto	u2800
  4790  0025CC                     u2801:
  4791  0025CC  EFF9  F012         	goto	l3191
  4792  0025D0                     u2800:
  4793  0025D0  5020               	movf	___lodiv@divisor^0,w,c
  4794  0025D2  5E18               	subwf	___lodiv@dividend^0,f,c
  4795  0025D4  5021               	movf	(___lodiv@divisor+1)^0,w,c
  4796  0025D6  5A19               	subwfb	(___lodiv@dividend+1)^0,f,c
  4797  0025D8  5022               	movf	(___lodiv@divisor+2)^0,w,c
  4798  0025DA  5A1A               	subwfb	(___lodiv@dividend+2)^0,f,c
  4799  0025DC  5023               	movf	(___lodiv@divisor+3)^0,w,c
  4800  0025DE  5A1B               	subwfb	(___lodiv@dividend+3)^0,f,c
  4801  0025E0  5024               	movf	(___lodiv@divisor+4)^0,w,c
  4802  0025E2  5A1C               	subwfb	(___lodiv@dividend+4)^0,f,c
  4803  0025E4  5025               	movf	(___lodiv@divisor+5)^0,w,c
  4804  0025E6  5A1D               	subwfb	(___lodiv@dividend+5)^0,f,c
  4805  0025E8  5026               	movf	(___lodiv@divisor+6)^0,w,c
  4806  0025EA  5A1E               	subwfb	(___lodiv@dividend+6)^0,f,c
  4807  0025EC  5027               	movf	(___lodiv@divisor+7)^0,w,c
  4808  0025EE  5A1F               	subwfb	(___lodiv@dividend+7)^0,f,c
  4809  0025F0  8028               	bsf	___lodiv@quotient^0,0,c
  4810  0025F2                     l3191:
  4811  0025F2  90D8               	bcf	status,0,c
  4812  0025F4  3227               	rrcf	(___lodiv@divisor+7)^0,f,c
  4813  0025F6  3226               	rrcf	(___lodiv@divisor+6)^0,f,c
  4814  0025F8  3225               	rrcf	(___lodiv@divisor+5)^0,f,c
  4815  0025FA  3224               	rrcf	(___lodiv@divisor+4)^0,f,c
  4816  0025FC  3223               	rrcf	(___lodiv@divisor+3)^0,f,c
  4817  0025FE  3222               	rrcf	(___lodiv@divisor+2)^0,f,c
  4818  002600  3221               	rrcf	(___lodiv@divisor+1)^0,f,c
  4819  002602  3220               	rrcf	___lodiv@divisor^0,f,c
  4820  002604  2E30               	decfsz	___lodiv@counter^0,f,c
  4821  002606  EFC8  F012         	goto	l3183
  4822  00260A                     l757:
  4823  00260A  C028  F018         	movff	___lodiv@quotient,?___lodiv
  4824  00260E  C029  F019         	movff	___lodiv@quotient+1,?___lodiv+1
  4825  002612  C02A  F01A         	movff	___lodiv@quotient+2,?___lodiv+2
  4826  002616  C02B  F01B         	movff	___lodiv@quotient+3,?___lodiv+3
  4827  00261A  C02C  F01C         	movff	___lodiv@quotient+4,?___lodiv+4
  4828  00261E  C02D  F01D         	movff	___lodiv@quotient+5,?___lodiv+5
  4829  002622  C02E  F01E         	movff	___lodiv@quotient+6,?___lodiv+6
  4830  002626  C02F  F01F         	movff	___lodiv@quotient+7,?___lodiv+7
  4831  00262A  0012               	return		;funcret
  4832  00262C                     __end_of___lodiv:
  4833                           	callstack 0
  4834                           
  4835 ;; *************** function _ctoa *****************
  4836 ;; Defined at:
  4837 ;;		line 259 in file "/Applications/microchip/xc8/v2.30/pic/sources/c99/common/doprnt.c"
  4838 ;; Parameters:    Size  Location     Type
  4839 ;;  fp              2   32[COMRAM] PTR struct _IO_FILE
  4840 ;;		 -> sprintf@f(6), 
  4841 ;;  c               1   34[COMRAM] unsigned char 
  4842 ;; Auto vars:     Size  Location     Type
  4843 ;;  w               2   38[COMRAM] int 
  4844 ;;  l               2   36[COMRAM] int 
  4845 ;; Return value:  Size  Location     Type
  4846 ;;                  2   32[COMRAM] int 
  4847 ;; Registers used:
  4848 ;;		wreg, fsr1l, fsr1h, fsr2l, fsr2h, status,2, status,0, cstack
  4849 ;; Tracked objects:
  4850 ;;		On entry : 0/0
  4851 ;;		On exit  : 0/0
  4852 ;;		Unchanged: 0/0
  4853 ;; Data sizes:     COMRAM   BANK0   BANK1   BANK2   BANK3   BANK4   BANK5   BANK6   BANK7   BANK8   BANK9  BANK10  BANK1
      +1  BANK12  BANK13  BANK14  BANK15
  4854 ;;      Params:         3       0       0       0       0       0       0       0       0       0       0       0       
      +0       0       0       0       0
  4855 ;;      Locals:         4       0       0       0       0       0       0       0       0       0       0       0       
      +0       0       0       0       0
  4856 ;;      Temps:          1       0       0       0       0       0       0       0       0       0       0       0       
      +0       0       0       0       0
  4857 ;;      Totals:         8       0       0       0       0       0       0       0       0       0       0       0       
      +0       0       0       0       0
  4858 ;;Total ram usage:        8 bytes
  4859 ;; Hardware stack levels used:    1
  4860 ;; Hardware stack levels required when called:    5
  4861 ;; This function calls:
  4862 ;;		_fputc
  4863 ;; This function is called by:
  4864 ;;		_vfpfcnvrt
  4865 ;; This function uses a non-reentrant model
  4866 ;;
  4867                           
  4868                           	psect	text20
  4869  00262C                     __ptext20:
  4870                           	callstack 0
  4871  00262C                     _ctoa:
  4872                           	callstack 21
  4873  00262C                     
  4874                           ;/Applications/microchip/xc8/v2.30/pic/sources/c99/common/doprnt.c: 259: static int ctoa
      +                          (FILE *fp, char c);/Applications/microchip/xc8/v2.30/pic/sources/c99/common/doprnt.c: 26
      +                          0: {;/Applications/microchip/xc8/v2.30/pic/sources/c99/common/doprnt.c: 261:     int l, 
      +                          w;;/Applications/microchip/xc8/v2.30/pic/sources/c99/common/doprnt.c: 264:     w = width
      +                           ? width - 1 : width;
  4875  00262C  5037               	movf	_width^0,w,c
  4876  00262E  1038               	iorwf	(_width+1)^0,w,c
  4877  002630  A4D8               	btfss	status,2,c
  4878  002632  EF1D  F013         	goto	u2921
  4879  002636  EF1F  F013         	goto	u2920
  4880  00263A                     u2921:
  4881  00263A  EF25  F013         	goto	l3253
  4882  00263E                     u2920:
  4883  00263E  C037  F027         	movff	_width,ctoa@w
  4884  002642  C038  F028         	movff	_width+1,ctoa@w+1
  4885  002646  EF2B  F013         	goto	l3255
  4886  00264A                     l3253:
  4887  00264A  0EFF               	movlw	255
  4888  00264C  2437               	addwf	_width^0,w,c
  4889  00264E  6E27               	movwf	ctoa@w^0,c
  4890  002650  0EFF               	movlw	255
  4891  002652  2038               	addwfc	(_width+1)^0,w,c
  4892  002654  6E28               	movwf	(ctoa@w+1)^0,c
  4893  002656                     l3255:
  4894                           
  4895                           ;/Applications/microchip/xc8/v2.30/pic/sources/c99/common/doprnt.c: 267:     if (flags &
      +                           (1 << 0)) {
  4896  002656  A03B               	btfss	_flags^0,0,c
  4897  002658  EF30  F013         	goto	u2931
  4898  00265C  EF32  F013         	goto	u2930
  4899  002660                     u2931:
  4900  002660  EF3B  F013         	goto	l3259
  4901  002664                     u2930:
  4902  002664                     
  4903                           ;/Applications/microchip/xc8/v2.30/pic/sources/c99/common/doprnt.c: 268:         fputc(c
      +                          , fp);
  4904  002664  C023  F018         	movff	ctoa@c,fputc@c
  4905  002668  6A19               	clrf	(fputc@c+1)^0,c
  4906  00266A  C021  F01A         	movff	ctoa@fp,fputc@fp
  4907  00266E  C022  F01B         	movff	ctoa@fp+1,fputc@fp+1
  4908  002672  EC4D  F014         	call	_fputc	;wreg free
  4909  002676                     l3259:
  4910                           
  4911                           ;/Applications/microchip/xc8/v2.30/pic/sources/c99/common/doprnt.c: 271:     w = (w < 0)
      +                           ? 0 : w;
  4912  002676  BE28               	btfsc	(ctoa@w+1)^0,7,c
  4913  002678  EF40  F013         	goto	u2941
  4914  00267C  EF42  F013         	goto	u2940
  4915  002680                     u2941:
  4916  002680  EF44  F013         	goto	l3263
  4917  002684                     u2940:
  4918  002684  EF48  F013         	goto	l1042
  4919  002688                     l3263:
  4920  002688  0E00               	movlw	0
  4921  00268A  6E28               	movwf	(ctoa@w+1)^0,c
  4922  00268C  0E00               	movlw	0
  4923  00268E  6E27               	movwf	ctoa@w^0,c
  4924  002690                     l1042:
  4925                           
  4926                           ;/Applications/microchip/xc8/v2.30/pic/sources/c99/common/doprnt.c: 272:     l = 0;
  4927  002690  0E00               	movlw	0
  4928  002692  6E26               	movwf	(ctoa@l+1)^0,c
  4929  002694  0E00               	movlw	0
  4930  002696  6E25               	movwf	ctoa@l^0,c
  4931                           
  4932                           ;/Applications/microchip/xc8/v2.30/pic/sources/c99/common/doprnt.c: 273:     while (l < 
      +                          w) {
  4933  002698  EF5A  F013         	goto	l3269
  4934  00269C                     l3265:
  4935                           
  4936                           ;/Applications/microchip/xc8/v2.30/pic/sources/c99/common/doprnt.c: 274:         fputc('
      +                           ', fp);
  4937  00269C  0E00               	movlw	0
  4938  00269E  6E19               	movwf	(fputc@c+1)^0,c
  4939  0026A0  0E20               	movlw	32
  4940  0026A2  6E18               	movwf	fputc@c^0,c
  4941  0026A4  C021  F01A         	movff	ctoa@fp,fputc@fp
  4942  0026A8  C022  F01B         	movff	ctoa@fp+1,fputc@fp+1
  4943  0026AC  EC4D  F014         	call	_fputc	;wreg free
  4944  0026B0                     
  4945                           ;/Applications/microchip/xc8/v2.30/pic/sources/c99/common/doprnt.c: 275:         ++l;
  4946  0026B0  4A25               	infsnz	ctoa@l^0,f,c
  4947  0026B2  2A26               	incf	(ctoa@l+1)^0,f,c
  4948  0026B4                     l3269:
  4949                           
  4950                           ;/Applications/microchip/xc8/v2.30/pic/sources/c99/common/doprnt.c: 273:     while (l < 
      +                          w) {
  4951  0026B4  5027               	movf	ctoa@w^0,w,c
  4952  0026B6  5C25               	subwf	ctoa@l^0,w,c
  4953  0026B8  5026               	movf	(ctoa@l+1)^0,w,c
  4954  0026BA  0A80               	xorlw	128
  4955  0026BC  6E24               	movwf	??_ctoa^0,c
  4956  0026BE  5028               	movf	(ctoa@w+1)^0,w,c
  4957  0026C0  0A80               	xorlw	128
  4958  0026C2  5824               	subwfb	??_ctoa^0,w,c
  4959  0026C4  A0D8               	btfss	status,0,c
  4960  0026C6  EF67  F013         	goto	u2951
  4961  0026CA  EF69  F013         	goto	u2950
  4962  0026CE                     u2951:
  4963  0026CE  EF4E  F013         	goto	l3265
  4964  0026D2                     u2950:
  4965  0026D2                     
  4966                           ;/Applications/microchip/xc8/v2.30/pic/sources/c99/common/doprnt.c: 278:     if (!(flags
      +                           & (1 << 0))) {
  4967  0026D2  B03B               	btfsc	_flags^0,0,c
  4968  0026D4  EF6E  F013         	goto	u2961
  4969  0026D8  EF70  F013         	goto	u2960
  4970  0026DC                     u2961:
  4971  0026DC  EF79  F013         	goto	l3273
  4972  0026E0                     u2960:
  4973  0026E0                     
  4974                           ;/Applications/microchip/xc8/v2.30/pic/sources/c99/common/doprnt.c: 279:         fputc(c
      +                          , fp);
  4975  0026E0  C023  F018         	movff	ctoa@c,fputc@c
  4976  0026E4  6A19               	clrf	(fputc@c+1)^0,c
  4977  0026E6  C021  F01A         	movff	ctoa@fp,fputc@fp
  4978  0026EA  C022  F01B         	movff	ctoa@fp+1,fputc@fp+1
  4979  0026EE  EC4D  F014         	call	_fputc	;wreg free
  4980  0026F2                     l3273:
  4981                           
  4982                           ;/Applications/microchip/xc8/v2.30/pic/sources/c99/common/doprnt.c: 282:     return l+1;
  4983  0026F2  0E01               	movlw	1
  4984  0026F4  2425               	addwf	ctoa@l^0,w,c
  4985  0026F6  6E21               	movwf	?_ctoa^0,c
  4986  0026F8  0E00               	movlw	0
  4987  0026FA  2026               	addwfc	(ctoa@l+1)^0,w,c
  4988  0026FC  6E22               	movwf	(?_ctoa+1)^0,c
  4989  0026FE  0012               	return		;funcret
  4990  002700                     __end_of_ctoa:
  4991                           	callstack 0
  4992                           
  4993 ;; *************** function _fputc *****************
  4994 ;; Defined at:
  4995 ;;		line 8 in file "/Applications/microchip/xc8/v2.30/pic/sources/c99/common/nf_fputc.c"
  4996 ;; Parameters:    Size  Location     Type
  4997 ;;  c               2   23[COMRAM] int 
  4998 ;;  fp              2   25[COMRAM] PTR struct _IO_FILE
  4999 ;;		 -> sprintf@f(6), 
  5000 ;; Auto vars:     Size  Location     Type
  5001 ;;		None
  5002 ;; Return value:  Size  Location     Type
  5003 ;;                  2   23[COMRAM] int 
  5004 ;; Registers used:
  5005 ;;		wreg, fsr1l, fsr1h, fsr2l, fsr2h, status,2, status,0, cstack
  5006 ;; Tracked objects:
  5007 ;;		On entry : 0/0
  5008 ;;		On exit  : 0/0
  5009 ;;		Unchanged: 0/0
  5010 ;; Data sizes:     COMRAM   BANK0   BANK1   BANK2   BANK3   BANK4   BANK5   BANK6   BANK7   BANK8   BANK9  BANK10  BANK1
      +1  BANK12  BANK13  BANK14  BANK15
  5011 ;;      Params:         4       0       0       0       0       0       0       0       0       0       0       0       
      +0       0       0       0       0
  5012 ;;      Locals:         0       0       0       0       0       0       0       0       0       0       0       0       
      +0       0       0       0       0
  5013 ;;      Temps:          5       0       0       0       0       0       0       0       0       0       0       0       
      +0       0       0       0       0
  5014 ;;      Totals:         9       0       0       0       0       0       0       0       0       0       0       0       
      +0       0       0       0       0
  5015 ;;Total ram usage:        9 bytes
  5016 ;; Hardware stack levels used:    1
  5017 ;; Hardware stack levels required when called:    4
  5018 ;; This function calls:
  5019 ;;		_putch
  5020 ;; This function is called by:
  5021 ;;		_pad
  5022 ;;		_ctoa
  5023 ;;		_vfpfcnvrt
  5024 ;;		_fputs
  5025 ;; This function uses a non-reentrant model
  5026 ;;
  5027                           
  5028                           	psect	text21
  5029  00289A                     __ptext21:
  5030                           	callstack 0
  5031  00289A                     _fputc:
  5032                           	callstack 19
  5033  00289A  501A               	movf	fputc@fp^0,w,c
  5034  00289C  101B               	iorwf	(fputc@fp+1)^0,w,c
  5035  00289E  B4D8               	btfsc	status,2,c
  5036  0028A0  EF54  F014         	goto	u2711
  5037  0028A4  EF56  F014         	goto	u2710
  5038  0028A8                     u2711:
  5039  0028A8  EF5F  F014         	goto	l3139
  5040  0028AC                     u2710:
  5041  0028AC  501A               	movf	fputc@fp^0,w,c
  5042  0028AE  101B               	iorwf	(fputc@fp+1)^0,w,c
  5043  0028B0  A4D8               	btfss	status,2,c
  5044  0028B2  EF5D  F014         	goto	u2721
  5045  0028B6  EF5F  F014         	goto	u2720
  5046  0028BA                     u2721:
  5047  0028BA  EF64  F014         	goto	l3141
  5048  0028BE                     u2720:
  5049  0028BE                     l3139:
  5050  0028BE  5018               	movf	fputc@c^0,w,c
  5051  0028C0  ECD6  F018         	call	_putch
  5052  0028C4  EFB1  F014         	goto	l1154
  5053  0028C8                     l3141:
  5054  0028C8  EE20 F004          	lfsr	2,4
  5055  0028CC  501A               	movf	fputc@fp^0,w,c
  5056  0028CE  26D9               	addwf	fsr2l,f,c
  5057  0028D0  501B               	movf	(fputc@fp+1)^0,w,c
  5058  0028D2  22DA               	addwfc	fsr2h,f,c
  5059  0028D4  50DE               	movf	postinc2,w,c
  5060  0028D6  10DE               	iorwf	postinc2,w,c
  5061  0028D8  B4D8               	btfsc	status,2,c
  5062  0028DA  EF71  F014         	goto	u2731
  5063  0028DE  EF73  F014         	goto	u2730
  5064  0028E2                     u2731:
  5065  0028E2  EF8E  F014         	goto	l3145
  5066  0028E6                     u2730:
  5067  0028E6  EE20 F004          	lfsr	2,4
  5068  0028EA  501A               	movf	fputc@fp^0,w,c
  5069  0028EC  26D9               	addwf	fsr2l,f,c
  5070  0028EE  501B               	movf	(fputc@fp+1)^0,w,c
  5071  0028F0  22DA               	addwfc	fsr2h,f,c
  5072  0028F2  EE10 F002          	lfsr	1,2
  5073  0028F6  501A               	movf	fputc@fp^0,w,c
  5074  0028F8  26E1               	addwf	fsr1l,f,c
  5075  0028FA  501B               	movf	(fputc@fp+1)^0,w,c
  5076  0028FC  22E2               	addwfc	fsr1h,f,c
  5077  0028FE  50DE               	movf	postinc2,w,c
  5078  002900  5CE6               	subwf	postinc1,w,c
  5079  002902  50E6               	movf	postinc1,w,c
  5080  002904  0A80               	xorlw	128
  5081  002906  6E20               	movwf	(??_fputc+4)^0,c
  5082  002908  50DE               	movf	postinc2,w,c
  5083  00290A  0A80               	xorlw	128
  5084  00290C  5820               	subwfb	(??_fputc+4)^0,w,c
  5085  00290E  B0D8               	btfsc	status,0,c
  5086  002910  EF8C  F014         	goto	u2741
  5087  002914  EF8E  F014         	goto	u2740
  5088  002918                     u2741:
  5089  002918  EFB1  F014         	goto	l1154
  5090  00291C                     u2740:
  5091  00291C                     l3145:
  5092  00291C  EE20 F002          	lfsr	2,2
  5093  002920  501A               	movf	fputc@fp^0,w,c
  5094  002922  26D9               	addwf	fsr2l,f,c
  5095  002924  501B               	movf	(fputc@fp+1)^0,w,c
  5096  002926  22DA               	addwfc	fsr2h,f,c
  5097  002928  CFDE F01C          	movff	postinc2,??_fputc
  5098  00292C  CFDD F01D          	movff	postdec2,??_fputc+1
  5099  002930  C01A  FFD9         	movff	fputc@fp,fsr2l
  5100  002934  C01B  FFDA         	movff	fputc@fp+1,fsr2h
  5101  002938  CFDE F01E          	movff	postinc2,??_fputc+2
  5102  00293C  CFDD F01F          	movff	postdec2,??_fputc+3
  5103  002940  501C               	movf	??_fputc^0,w,c
  5104  002942  241E               	addwf	(??_fputc+2)^0,w,c
  5105  002944  6ED9               	movwf	fsr2l,c
  5106  002946  501D               	movf	(??_fputc+1)^0,w,c
  5107  002948  201F               	addwfc	(??_fputc+3)^0,w,c
  5108  00294A  6EDA               	movwf	fsr2h,c
  5109  00294C  C018  FFDF         	movff	fputc@c,indf2
  5110  002950  EE20 F002          	lfsr	2,2
  5111  002954  501A               	movf	fputc@fp^0,w,c
  5112  002956  26D9               	addwf	fsr2l,f,c
  5113  002958  501B               	movf	(fputc@fp+1)^0,w,c
  5114  00295A  22DA               	addwfc	fsr2h,f,c
  5115  00295C  2ADE               	incf	postinc2,f,c
  5116  00295E  0E00               	movlw	0
  5117  002960  22DD               	addwfc	postdec2,f,c
  5118  002962                     l1154:
  5119  002962  0012               	return		;funcret
  5120  002964                     __end_of_fputc:
  5121                           	callstack 0
  5122                           
  5123 ;; *************** function _putch *****************
  5124 ;; Defined at:
  5125 ;;		line 7 in file "/Applications/microchip/xc8/v2.30/pic/sources/c99/common/putch.c"
  5126 ;; Parameters:    Size  Location     Type
  5127 ;;  c               1    wreg     unsigned char 
  5128 ;; Auto vars:     Size  Location     Type
  5129 ;;  c               1    0[COMRAM] unsigned char 
  5130 ;; Return value:  Size  Location     Type
  5131 ;;                  1    wreg      void 
  5132 ;; Registers used:
  5133 ;;		wreg
  5134 ;; Tracked objects:
  5135 ;;		On entry : 0/0
  5136 ;;		On exit  : 0/0
  5137 ;;		Unchanged: 0/0
  5138 ;; Data sizes:     COMRAM   BANK0   BANK1   BANK2   BANK3   BANK4   BANK5   BANK6   BANK7   BANK8   BANK9  BANK10  BANK1
      +1  BANK12  BANK13  BANK14  BANK15
  5139 ;;      Params:         0       0       0       0       0       0       0       0       0       0       0       0       
      +0       0       0       0       0
  5140 ;;      Locals:         0       0       0       0       0       0       0       0       0       0       0       0       
      +0       0       0       0       0
  5141 ;;      Temps:          0       0       0       0       0       0       0       0       0       0       0       0       
      +0       0       0       0       0
  5142 ;;      Totals:         0       0       0       0       0       0       0       0       0       0       0       0       
      +0       0       0       0       0
  5143 ;;Total ram usage:        0 bytes
  5144 ;; Hardware stack levels used:    1
  5145 ;; Hardware stack levels required when called:    3
  5146 ;; This function calls:
  5147 ;;		Nothing
  5148 ;; This function is called by:
  5149 ;;		_fputc
  5150 ;; This function uses a non-reentrant model
  5151 ;;
  5152                           
  5153                           	psect	text22
  5154  0031AC                     __ptext22:
  5155                           	callstack 0
  5156  0031AC                     _putch:
  5157                           	callstack 19
  5158  0031AC  0012               	return		;funcret
  5159  0031AE                     __end_of_putch:
  5160                           	callstack 0
  5161                           
  5162 ;; *************** function _atoi *****************
  5163 ;; Defined at:
  5164 ;;		line 4 in file "/Applications/microchip/xc8/v2.30/pic/sources/c99/common/atoi.c"
  5165 ;; Parameters:    Size  Location     Type
  5166 ;;  s               2   30[COMRAM] PTR const unsigned char 
  5167 ;;		 -> STR_4(14), STR_3(14), STR_2(16), STR_1(10), 
  5168 ;; Auto vars:     Size  Location     Type
  5169 ;;  n               2   43[COMRAM] int 
  5170 ;;  neg             2   36[COMRAM] int 
  5171 ;; Return value:  Size  Location     Type
  5172 ;;                  2   30[COMRAM] int 
  5173 ;; Registers used:
  5174 ;;		wreg, status,2, status,0, tblptrl, tblptrh, tblptru, prodl, prodh, cstack
  5175 ;; Tracked objects:
  5176 ;;		On entry : 0/0
  5177 ;;		On exit  : 0/0
  5178 ;;		Unchanged: 0/0
  5179 ;; Data sizes:     COMRAM   BANK0   BANK1   BANK2   BANK3   BANK4   BANK5   BANK6   BANK7   BANK8   BANK9  BANK10  BANK1
      +1  BANK12  BANK13  BANK14  BANK15
  5180 ;;      Params:         2       0       0       0       0       0       0       0       0       0       0       0       
      +0       0       0       0       0
  5181 ;;      Locals:         9       0       0       0       0       0       0       0       0       0       0       0       
      +0       0       0       0       0
  5182 ;;      Temps:          4       0       0       0       0       0       0       0       0       0       0       0       
      +0       0       0       0       0
  5183 ;;      Totals:        15       0       0       0       0       0       0       0       0       0       0       0       
      +0       0       0       0       0
  5184 ;;Total ram usage:       15 bytes
  5185 ;; Hardware stack levels used:    1
  5186 ;; Hardware stack levels required when called:    4
  5187 ;; This function calls:
  5188 ;;		___wmul
  5189 ;;		_isdigit
  5190 ;;		_isspace
  5191 ;; This function is called by:
  5192 ;;		_vfpfcnvrt
  5193 ;; This function uses a non-reentrant model
  5194 ;;
  5195                           
  5196                           	psect	text23
  5197  001EAE                     __ptext23:
  5198                           	callstack 0
  5199  001EAE                     _atoi:
  5200                           	callstack 22
  5201  001EAE  0E00               	movlw	0
  5202  001EB0  6E2D               	movwf	(atoi@n+1)^0,c
  5203  001EB2  0E00               	movlw	0
  5204  001EB4  6E2C               	movwf	atoi@n^0,c
  5205  001EB6  0E00               	movlw	0
  5206  001EB8  6E26               	movwf	(atoi@neg+1)^0,c
  5207  001EBA  0E00               	movlw	0
  5208  001EBC  6E25               	movwf	atoi@neg^0,c
  5209  001EBE  EF63  F00F         	goto	l3317
  5210  001EC2                     l3315:
  5211  001EC2  4A1F               	infsnz	atoi@s^0,f,c
  5212  001EC4  2A20               	incf	(atoi@s+1)^0,f,c
  5213  001EC6                     l3317:
  5214  001EC6  0E01               	movlw	1
  5215  001EC8  6E2B               	movwf	_atoi$1280^0,c
  5216  001ECA  C01F  FFF6         	movff	atoi@s,tblptrl
  5217  001ECE  C020  FFF7         	movff	atoi@s+1,tblptrh
  5218  001ED2                     	if	0	;tblptru may be non-zero
  5219  001ED2                     	endif
  5220  001ED2                     	if	1	;Program memory is > 0xFFFF, there are 3 active tblptr bytes
  5221  001ED2  0E00               	movlw	low (__mediumconst shr (0+16))
  5222  001ED4  6EF8               	movwf	tblptru,c
  5223  001ED6                     	endif
  5224  001ED6  0008               	tblrd		*
  5225  001ED8  50F5               	movf	tablat,w,c
  5226  001EDA  0A20               	xorlw	32
  5227  001EDC  B4D8               	btfsc	status,2,c
  5228  001EDE  EF73  F00F         	goto	u3041
  5229  001EE2  EF75  F00F         	goto	u3040
  5230  001EE6                     u3041:
  5231  001EE6  EF94  F00F         	goto	l3325
  5232  001EEA                     u3040:
  5233  001EEA  0EF7               	movlw	247
  5234  001EEC  6E21               	movwf	??_atoi^0,c
  5235  001EEE  0EFF               	movlw	255
  5236  001EF0  6E22               	movwf	(??_atoi+1)^0,c
  5237  001EF2  C01F  FFF6         	movff	atoi@s,tblptrl
  5238  001EF6  C020  FFF7         	movff	atoi@s+1,tblptrh
  5239  001EFA                     	if	0	;tblptru may be non-zero
  5240  001EFA                     	endif
  5241  001EFA                     	if	1	;Program memory is > 0xFFFF, there are 3 active tblptr bytes
  5242  001EFA  0E00               	movlw	low (__mediumconst shr (0+16))
  5243  001EFC  6EF8               	movwf	tblptru,c
  5244  001EFE                     	endif
  5245  001EFE  0008               	tblrd		*
  5246  001F00  50F5               	movf	tablat,w,c
  5247  001F02  6E23               	movwf	(??_atoi+2)^0,c
  5248  001F04  6A24               	clrf	(??_atoi+3)^0,c
  5249  001F06  5021               	movf	??_atoi^0,w,c
  5250  001F08  2623               	addwf	(??_atoi+2)^0,f,c
  5251  001F0A  5022               	movf	(??_atoi+1)^0,w,c
  5252  001F0C  2224               	addwfc	(??_atoi+3)^0,f,c
  5253  001F0E  5024               	movf	(??_atoi+3)^0,w,c
  5254  001F10  E109               	bnz	u3050
  5255  001F12  0E05               	movlw	5
  5256  001F14  5C23               	subwf	(??_atoi+2)^0,w,c
  5257  001F16  A0D8               	btfss	status,0,c
  5258  001F18  EF90  F00F         	goto	u3051
  5259  001F1C  EF92  F00F         	goto	u3050
  5260  001F20                     u3051:
  5261  001F20  EF94  F00F         	goto	l3325
  5262  001F24                     u3050:
  5263  001F24  0E00               	movlw	0
  5264  001F26  6E2B               	movwf	_atoi$1280^0,c
  5265  001F28                     l3325:
  5266  001F28  C02B  F027         	movff	_atoi$1280,_atoi$1279
  5267  001F2C  6A28               	clrf	(_atoi$1279+1)^0,c
  5268  001F2E  5027               	movf	_atoi$1279^0,w,c
  5269  001F30  1028               	iorwf	(_atoi$1279+1)^0,w,c
  5270  001F32  A4D8               	btfss	status,2,c
  5271  001F34  EF9E  F00F         	goto	u3061
  5272  001F38  EFA0  F00F         	goto	u3060
  5273  001F3C                     u3061:
  5274  001F3C  EF61  F00F         	goto	l3315
  5275  001F40                     u3060:
  5276  001F40  EFAA  F00F         	goto	l3335
  5277  001F44                     l3331:
  5278  001F44  0E00               	movlw	0
  5279  001F46  6E26               	movwf	(atoi@neg+1)^0,c
  5280  001F48  0E01               	movlw	1
  5281  001F4A  6E25               	movwf	atoi@neg^0,c
  5282  001F4C                     l3333:
  5283  001F4C  4A1F               	infsnz	atoi@s^0,f,c
  5284  001F4E  2A20               	incf	(atoi@s+1)^0,f,c
  5285  001F50  EFE3  F00F         	goto	l3341
  5286  001F54                     l3335:
  5287  001F54  C01F  FFF6         	movff	atoi@s,tblptrl
  5288  001F58  C020  FFF7         	movff	atoi@s+1,tblptrh
  5289  001F5C                     	if	0	;tblptru may be non-zero
  5290  001F5C                     	endif
  5291  001F5C                     	if	1	;Program memory is > 0xFFFF, there are 3 active tblptr bytes
  5292  001F5C  0E00               	movlw	low (__mediumconst shr (0+16))
  5293  001F5E  6EF8               	movwf	tblptru,c
  5294  001F60                     	endif
  5295  001F60  0008               	tblrd		*
  5296  001F62  50F5               	movf	tablat,w,c
  5297  001F64  6E21               	movwf	??_atoi^0,c
  5298  001F66  6A22               	clrf	(??_atoi+1)^0,c
  5299                           
  5300                           ; Switch on 2 bytes has been partitioned into a top level switch of size 1, and 1 sub-sw
      +                          itches
  5301                           ; Switch size 1, requested type "simple"
  5302                           ; Number of cases is 1, Range of values is 0 to 0
  5303                           ; switch strategies available:
  5304                           ; Name         Instructions Cycles
  5305                           ; simple_byte            4     3 (average)
  5306                           ;	Chosen strategy is simple_byte
  5307  001F68  5022               	movf	(??_atoi+1)^0,w,c
  5308  001F6A  0A00               	xorlw	0	; case 0
  5309  001F6C  B4D8               	btfsc	status,2,c
  5310  001F6E  EFBB  F00F         	goto	l4041
  5311  001F72  EFE3  F00F         	goto	l3341
  5312  001F76                     l4041:
  5313                           
  5314                           ; Switch size 1, requested type "simple"
  5315                           ; Number of cases is 2, Range of values is 43 to 45
  5316                           ; switch strategies available:
  5317                           ; Name         Instructions Cycles
  5318                           ; simple_byte            7     4 (average)
  5319                           ;	Chosen strategy is simple_byte
  5320  001F76  5021               	movf	??_atoi^0,w,c
  5321  001F78  0A2B               	xorlw	43	; case 43
  5322  001F7A  B4D8               	btfsc	status,2,c
  5323  001F7C  EFA6  F00F         	goto	l3333
  5324  001F80  0A06               	xorlw	6	; case 45
  5325  001F82  B4D8               	btfsc	status,2,c
  5326  001F84  EFA2  F00F         	goto	l3331
  5327  001F88  EFE3  F00F         	goto	l3341
  5328  001F8C                     l3337:
  5329  001F8C  C02C  F018         	movff	atoi@n,___wmul@multiplier
  5330  001F90  C02D  F019         	movff	atoi@n+1,___wmul@multiplier+1
  5331  001F94  0E00               	movlw	0
  5332  001F96  6E1B               	movwf	(___wmul@multiplicand+1)^0,c
  5333  001F98  0E0A               	movlw	10
  5334  001F9A  6E1A               	movwf	___wmul@multiplicand^0,c
  5335  001F9C  EC97  F018         	call	___wmul	;wreg free
  5336  001FA0  C01F  FFF6         	movff	atoi@s,tblptrl
  5337  001FA4  C020  FFF7         	movff	atoi@s+1,tblptrh
  5338  001FA8                     	if	0	;tblptru may be non-zero
  5339  001FA8                     	endif
  5340  001FA8                     	if	1	;Program memory is > 0xFFFF, there are 3 active tblptr bytes
  5341  001FA8  0E00               	movlw	low (__mediumconst shr (0+16))
  5342  001FAA  6EF8               	movwf	tblptru,c
  5343  001FAC                     	endif
  5344  001FAC  0008               	tblrd		*
  5345  001FAE  50F5               	movf	tablat,w,c
  5346  001FB0  5E18               	subwf	?___wmul^0,f,c
  5347  001FB2  0E00               	movlw	0
  5348  001FB4  5A19               	subwfb	(?___wmul+1)^0,f,c
  5349  001FB6  0E30               	movlw	48
  5350  001FB8  2418               	addwf	?___wmul^0,w,c
  5351  001FBA  6E2C               	movwf	atoi@n^0,c
  5352  001FBC  0E00               	movlw	0
  5353  001FBE  2019               	addwfc	(?___wmul+1)^0,w,c
  5354  001FC0  6E2D               	movwf	(atoi@n+1)^0,c
  5355  001FC2  EFA6  F00F         	goto	l3333
  5356  001FC6                     l3341:
  5357  001FC6  0ED0               	movlw	208
  5358  001FC8  6E21               	movwf	??_atoi^0,c
  5359  001FCA  0EFF               	movlw	255
  5360  001FCC  6E22               	movwf	(??_atoi+1)^0,c
  5361  001FCE  C01F  FFF6         	movff	atoi@s,tblptrl
  5362  001FD2  C020  FFF7         	movff	atoi@s+1,tblptrh
  5363  001FD6                     	if	0	;tblptru may be non-zero
  5364  001FD6                     	endif
  5365  001FD6                     	if	1	;Program memory is > 0xFFFF, there are 3 active tblptr bytes
  5366  001FD6  0E00               	movlw	low (__mediumconst shr (0+16))
  5367  001FD8  6EF8               	movwf	tblptru,c
  5368  001FDA                     	endif
  5369  001FDA  0008               	tblrd		*
  5370  001FDC  50F5               	movf	tablat,w,c
  5371  001FDE  6E23               	movwf	(??_atoi+2)^0,c
  5372  001FE0  6A24               	clrf	(??_atoi+3)^0,c
  5373  001FE2  5021               	movf	??_atoi^0,w,c
  5374  001FE4  2623               	addwf	(??_atoi+2)^0,f,c
  5375  001FE6  5022               	movf	(??_atoi+1)^0,w,c
  5376  001FE8  2224               	addwfc	(??_atoi+3)^0,f,c
  5377  001FEA  5024               	movf	(??_atoi+3)^0,w,c
  5378  001FEC  E10A               	bnz	u3070
  5379  001FEE  0E0A               	movlw	10
  5380  001FF0  5C23               	subwf	(??_atoi+2)^0,w,c
  5381  001FF2  A0D8               	btfss	status,0,c
  5382  001FF4  EFFE  F00F         	goto	u3071
  5383  001FF8  EF01  F010         	goto	u3070
  5384  001FFC                     u3071:
  5385  001FFC  0E01               	movlw	1
  5386  001FFE  EF02  F010         	goto	u3080
  5387  002002                     u3070:
  5388  002002  0E00               	movlw	0
  5389  002004                     u3080:
  5390  002004  6E29               	movwf	_atoi$1281^0,c
  5391  002006  6A2A               	clrf	(_atoi$1281+1)^0,c
  5392  002008  5029               	movf	_atoi$1281^0,w,c
  5393  00200A  102A               	iorwf	(_atoi$1281+1)^0,w,c
  5394  00200C  A4D8               	btfss	status,2,c
  5395  00200E  EF0B  F010         	goto	u3091
  5396  002012  EF0D  F010         	goto	u3090
  5397  002016                     u3091:
  5398  002016  EFC6  F00F         	goto	l3337
  5399  00201A                     u3090:
  5400  00201A  5025               	movf	atoi@neg^0,w,c
  5401  00201C  1026               	iorwf	(atoi@neg+1)^0,w,c
  5402  00201E  A4D8               	btfss	status,2,c
  5403  002020  EF14  F010         	goto	u3101
  5404  002024  EF16  F010         	goto	u3100
  5405  002028                     u3101:
  5406  002028  EF24  F010         	goto	l1125
  5407  00202C                     u3100:
  5408  00202C  C02C  F021         	movff	atoi@n,??_atoi
  5409  002030  C02D  F022         	movff	atoi@n+1,??_atoi+1
  5410  002034  1E21               	comf	??_atoi^0,f,c
  5411  002036  1E22               	comf	(??_atoi+1)^0,f,c
  5412  002038  4A21               	infsnz	??_atoi^0,f,c
  5413  00203A  2A22               	incf	(??_atoi+1)^0,f,c
  5414  00203C  C021  F01F         	movff	??_atoi,?_atoi
  5415  002040  C022  F020         	movff	??_atoi+1,?_atoi+1
  5416  002044  EF28  F010         	goto	l1128
  5417  002048                     l1125:
  5418  002048  C02C  F01F         	movff	atoi@n,?_atoi
  5419  00204C  C02D  F020         	movff	atoi@n+1,?_atoi+1
  5420  002050                     l1128:
  5421  002050  0012               	return		;funcret
  5422  002052                     __end_of_atoi:
  5423                           	callstack 0
  5424                           
  5425 ;; *************** function _isspace *****************
  5426 ;; Defined at:
  5427 ;;		line 5 in file "/Applications/microchip/xc8/v2.30/pic/sources/c99/common/isspace.c"
  5428 ;; Parameters:    Size  Location     Type
  5429 ;;  c               2   23[COMRAM] int 
  5430 ;; Auto vars:     Size  Location     Type
  5431 ;;		None
  5432 ;; Return value:  Size  Location     Type
  5433 ;;                  2   23[COMRAM] int 
  5434 ;; Registers used:
  5435 ;;		wreg, status,2, status,0
  5436 ;; Tracked objects:
  5437 ;;		On entry : 0/0
  5438 ;;		On exit  : 0/0
  5439 ;;		Unchanged: 0/0
  5440 ;; Data sizes:     COMRAM   BANK0   BANK1   BANK2   BANK3   BANK4   BANK5   BANK6   BANK7   BANK8   BANK9  BANK10  BANK1
      +1  BANK12  BANK13  BANK14  BANK15
  5441 ;;      Params:         2       0       0       0       0       0       0       0       0       0       0       0       
      +0       0       0       0       0
  5442 ;;      Locals:         1       0       0       0       0       0       0       0       0       0       0       0       
      +0       0       0       0       0
  5443 ;;      Temps:          4       0       0       0       0       0       0       0       0       0       0       0       
      +0       0       0       0       0
  5444 ;;      Totals:         7       0       0       0       0       0       0       0       0       0       0       0       
      +0       0       0       0       0
  5445 ;;Total ram usage:        7 bytes
  5446 ;; Hardware stack levels used:    1
  5447 ;; Hardware stack levels required when called:    3
  5448 ;; This function calls:
  5449 ;;		Nothing
  5450 ;; This function is called by:
  5451 ;;		_atoi
  5452 ;; This function uses a non-reentrant model
  5453 ;;
  5454                           
  5455                           	psect	text24
  5456  002EF2                     __ptext24:
  5457                           	callstack 0
  5458  002EF2                     _isspace:
  5459                           	callstack 22
  5460  002EF2  0E01               	movlw	1
  5461  002EF4  6E1E               	movwf	_isspace$1297^0,c
  5462  002EF6  0E20               	movlw	32
  5463  002EF8  1818               	xorwf	isspace@c^0,w,c
  5464  002EFA  1019               	iorwf	(isspace@c+1)^0,w,c
  5465  002EFC  B4D8               	btfsc	status,2,c
  5466  002EFE  EF83  F017         	goto	u2901
  5467  002F02  EF85  F017         	goto	u2900
  5468  002F06                     u2901:
  5469  002F06  EF9E  F017         	goto	l3245
  5470  002F0A                     u2900:
  5471  002F0A  0EF7               	movlw	247
  5472  002F0C  6E1A               	movwf	??_isspace^0,c
  5473  002F0E  0EFF               	movlw	255
  5474  002F10  6E1B               	movwf	(??_isspace+1)^0,c
  5475  002F12  C018  F01C         	movff	isspace@c,??_isspace+2
  5476  002F16  C019  F01D         	movff	isspace@c+1,??_isspace+3
  5477  002F1A  501A               	movf	??_isspace^0,w,c
  5478  002F1C  261C               	addwf	(??_isspace+2)^0,f,c
  5479  002F1E  501B               	movf	(??_isspace+1)^0,w,c
  5480  002F20  221D               	addwfc	(??_isspace+3)^0,f,c
  5481  002F22  501D               	movf	(??_isspace+3)^0,w,c
  5482  002F24  E109               	bnz	u2910
  5483  002F26  0E05               	movlw	5
  5484  002F28  5C1C               	subwf	(??_isspace+2)^0,w,c
  5485  002F2A  A0D8               	btfss	status,0,c
  5486  002F2C  EF9A  F017         	goto	u2911
  5487  002F30  EF9C  F017         	goto	u2910
  5488  002F34                     u2911:
  5489  002F34  EF9E  F017         	goto	l3245
  5490  002F38                     u2910:
  5491  002F38  0E00               	movlw	0
  5492  002F3A  6E1E               	movwf	_isspace$1297^0,c
  5493  002F3C                     l3245:
  5494  002F3C  C01E  F018         	movff	_isspace$1297,?_isspace
  5495  002F40  6A19               	clrf	(?_isspace+1)^0,c
  5496  002F42  0012               	return		;funcret
  5497  002F44                     __end_of_isspace:
  5498                           	callstack 0
  5499                           
  5500 ;; *************** function _isdigit *****************
  5501 ;; Defined at:
  5502 ;;		line 5 in file "/Applications/microchip/xc8/v2.30/pic/sources/c99/common/isdigit.c"
  5503 ;; Parameters:    Size  Location     Type
  5504 ;;  c               2   23[COMRAM] int 
  5505 ;; Auto vars:     Size  Location     Type
  5506 ;;		None
  5507 ;; Return value:  Size  Location     Type
  5508 ;;                  2   23[COMRAM] int 
  5509 ;; Registers used:
  5510 ;;		wreg, status,2, status,0
  5511 ;; Tracked objects:
  5512 ;;		On entry : 0/0
  5513 ;;		On exit  : 0/0
  5514 ;;		Unchanged: 0/0
  5515 ;; Data sizes:     COMRAM   BANK0   BANK1   BANK2   BANK3   BANK4   BANK5   BANK6   BANK7   BANK8   BANK9  BANK10  BANK1
      +1  BANK12  BANK13  BANK14  BANK15
  5516 ;;      Params:         2       0       0       0       0       0       0       0       0       0       0       0       
      +0       0       0       0       0
  5517 ;;      Locals:         0       0       0       0       0       0       0       0       0       0       0       0       
      +0       0       0       0       0
  5518 ;;      Temps:          4       0       0       0       0       0       0       0       0       0       0       0       
      +0       0       0       0       0
  5519 ;;      Totals:         6       0       0       0       0       0       0       0       0       0       0       0       
      +0       0       0       0       0
  5520 ;;Total ram usage:        6 bytes
  5521 ;; Hardware stack levels used:    1
  5522 ;; Hardware stack levels required when called:    3
  5523 ;; This function calls:
  5524 ;;		Nothing
  5525 ;; This function is called by:
  5526 ;;		_vfpfcnvrt
  5527 ;;		_atoi
  5528 ;; This function uses a non-reentrant model
  5529 ;;
  5530                           
  5531                           	psect	text25
  5532  003088                     __ptext25:
  5533                           	callstack 0
  5534  003088                     _isdigit:
  5535                           	callstack 23
  5536  003088  0ED0               	movlw	208
  5537  00308A  6E1A               	movwf	??_isdigit^0,c
  5538  00308C  0EFF               	movlw	255
  5539  00308E  6E1B               	movwf	(??_isdigit+1)^0,c
  5540  003090  C018  F01C         	movff	isdigit@c,??_isdigit+2
  5541  003094  C019  F01D         	movff	isdigit@c+1,??_isdigit+3
  5542  003098  501A               	movf	??_isdigit^0,w,c
  5543  00309A  261C               	addwf	(??_isdigit+2)^0,f,c
  5544  00309C  501B               	movf	(??_isdigit+1)^0,w,c
  5545  00309E  221D               	addwfc	(??_isdigit+3)^0,f,c
  5546  0030A0  501D               	movf	(??_isdigit+3)^0,w,c
  5547  0030A2  E10A               	bnz	u2880
  5548  0030A4  0E0A               	movlw	10
  5549  0030A6  5C1C               	subwf	(??_isdigit+2)^0,w,c
  5550  0030A8  A0D8               	btfss	status,0,c
  5551  0030AA  EF59  F018         	goto	u2881
  5552  0030AE  EF5C  F018         	goto	u2880
  5553  0030B2                     u2881:
  5554  0030B2  0E01               	movlw	1
  5555  0030B4  EF5D  F018         	goto	u2890
  5556  0030B8                     u2880:
  5557  0030B8  0E00               	movlw	0
  5558  0030BA                     u2890:
  5559  0030BA  6E18               	movwf	?_isdigit^0,c
  5560  0030BC  6A19               	clrf	(?_isdigit+1)^0,c
  5561  0030BE  0012               	return		;funcret
  5562  0030C0                     __end_of_isdigit:
  5563                           	callstack 0
  5564                           
  5565 ;; *************** function ___wmul *****************
  5566 ;; Defined at:
  5567 ;;		line 15 in file "/Applications/microchip/xc8/v2.30/pic/sources/c99/common/Umul16.c"
  5568 ;; Parameters:    Size  Location     Type
  5569 ;;  multiplier      2   23[COMRAM] unsigned int 
  5570 ;;  multiplicand    2   25[COMRAM] unsigned int 
  5571 ;; Auto vars:     Size  Location     Type
  5572 ;;  product         2   27[COMRAM] unsigned int 
  5573 ;; Return value:  Size  Location     Type
  5574 ;;                  2   23[COMRAM] unsigned int 
  5575 ;; Registers used:
  5576 ;;		wreg, status,2, status,0, prodl, prodh
  5577 ;; Tracked objects:
  5578 ;;		On entry : 0/0
  5579 ;;		On exit  : 0/0
  5580 ;;		Unchanged: 0/0
  5581 ;; Data sizes:     COMRAM   BANK0   BANK1   BANK2   BANK3   BANK4   BANK5   BANK6   BANK7   BANK8   BANK9  BANK10  BANK1
      +1  BANK12  BANK13  BANK14  BANK15
  5582 ;;      Params:         4       0       0       0       0       0       0       0       0       0       0       0       
      +0       0       0       0       0
  5583 ;;      Locals:         2       0       0       0       0       0       0       0       0       0       0       0       
      +0       0       0       0       0
  5584 ;;      Temps:          0       0       0       0       0       0       0       0       0       0       0       0       
      +0       0       0       0       0
  5585 ;;      Totals:         6       0       0       0       0       0       0       0       0       0       0       0       
      +0       0       0       0       0
  5586 ;;Total ram usage:        6 bytes
  5587 ;; Hardware stack levels used:    1
  5588 ;; Hardware stack levels required when called:    3
  5589 ;; This function calls:
  5590 ;;		Nothing
  5591 ;; This function is called by:
  5592 ;;		_try_park
  5593 ;;		_handle_subscr
  5594 ;;		_atoi
  5595 ;; This function uses a non-reentrant model
  5596 ;;
  5597                           
  5598                           	psect	text26
  5599  00312E                     __ptext26:
  5600                           	callstack 0
  5601  00312E                     ___wmul:
  5602                           	callstack 22
  5603  00312E  5018               	movf	___wmul@multiplier^0,w,c
  5604  003130  021A               	mulwf	___wmul@multiplicand^0,c
  5605  003132  CFF3 F01C          	movff	prodl,___wmul@product
  5606  003136  CFF4 F01D          	movff	prodh,___wmul@product+1
  5607  00313A  5018               	movf	___wmul@multiplier^0,w,c
  5608  00313C  021B               	mulwf	(___wmul@multiplicand+1)^0,c
  5609  00313E  50F3               	movf	243,w,c
  5610  003140  261D               	addwf	(___wmul@product+1)^0,f,c
  5611  003142  5019               	movf	(___wmul@multiplier+1)^0,w,c
  5612  003144  021A               	mulwf	___wmul@multiplicand^0,c
  5613  003146  50F3               	movf	243,w,c
  5614  003148  261D               	addwf	(___wmul@product+1)^0,f,c
  5615  00314A  C01C  F018         	movff	___wmul@product,?___wmul
  5616  00314E  C01D  F019         	movff	___wmul@product+1,?___wmul+1
  5617  003152  0012               	return		;funcret
  5618  003154                     __end_of___wmul:
  5619                           	callstack 0
  5620                           
  5621 ;; *************** function _buf_push *****************
  5622 ;; Defined at:
  5623 ;;		line 83 in file "main.c"
  5624 ;; Parameters:    Size  Location     Type
  5625 ;;  v               2   23[COMRAM] unsigned short 
  5626 ;;  buf             1   25[COMRAM] enum E4894
  5627 ;;  size            2   26[COMRAM] int 
  5628 ;; Auto vars:     Size  Location     Type
  5629 ;;		None
  5630 ;; Return value:  Size  Location     Type
  5631 ;;                  1    wreg      void 
  5632 ;; Registers used:
  5633 ;;		wreg, fsr1l, fsr1h, fsr2l, fsr2h, status,2, status,0, prodl, prodh
  5634 ;; Tracked objects:
  5635 ;;		On entry : 0/0
  5636 ;;		On exit  : 0/0
  5637 ;;		Unchanged: 0/0
  5638 ;; Data sizes:     COMRAM   BANK0   BANK1   BANK2   BANK3   BANK4   BANK5   BANK6   BANK7   BANK8   BANK9  BANK10  BANK1
      +1  BANK12  BANK13  BANK14  BANK15
  5639 ;;      Params:         5       0       0       0       0       0       0       0       0       0       0       0       
      +0       0       0       0       0
  5640 ;;      Locals:         0       0       0       0       0       0       0       0       0       0       0       0       
      +0       0       0       0       0
  5641 ;;      Temps:          2       0       0       0       0       0       0       0       0       0       0       0       
      +0       0       0       0       0
  5642 ;;      Totals:         7       0       0       0       0       0       0       0       0       0       0       0       
      +0       0       0       0       0
  5643 ;;Total ram usage:        7 bytes
  5644 ;; Hardware stack levels used:    1
  5645 ;; Hardware stack levels required when called:    3
  5646 ;; This function calls:
  5647 ;;		Nothing
  5648 ;; This function is called by:
  5649 ;;		_push_emp_rsp
  5650 ;;		_push_park_rsp
  5651 ;;		_push_park_fee_rsp
  5652 ;;		_push_sub_rsp
  5653 ;;		_handle_park
  5654 ;; This function uses a non-reentrant model
  5655 ;;
  5656                           
  5657                           	psect	text27
  5658  002434                     __ptext27:
  5659                           	callstack 0
  5660  002434                     _buf_push:
  5661                           	callstack 26
  5662  002434                     
  5663                           ;main.c: 84: 
  5664  002434  501A               	movf	buf_push@buf^0,w,c
  5665  002436  A4D8               	btfss	status,2,c
  5666  002438  EF20  F012         	goto	u3231
  5667  00243C  EF22  F012         	goto	u3230
  5668  002440                     u3231:
  5669  002440  EF38  F012         	goto	l3477
  5670  002444                     u3230:
  5671  002444  501A               	movf	buf_push@buf^0,w,c
  5672  002446  0D02               	mullw	2
  5673  002448  0E31               	movlw	low _head
  5674  00244A  24F3               	addwf	243,w,c
  5675  00244C  6ED9               	movwf	fsr2l,c
  5676  00244E  0E00               	movlw	high _head
  5677  002450  20F4               	addwfc	prodh,w,c
  5678  002452  6EDA               	movwf	fsr2h,c
  5679  002454  CFDE F01D          	movff	postinc2,??_buf_push
  5680  002458  CFDD F01E          	movff	postdec2,??_buf_push+1
  5681  00245C  0EE6               	movlw	low _inbuf
  5682  00245E  241D               	addwf	??_buf_push^0,w,c
  5683  002460  6ED9               	movwf	fsr2l,c
  5684  002462  0E04               	movlw	high _inbuf
  5685  002464  201E               	addwfc	(??_buf_push+1)^0,w,c
  5686  002466  6EDA               	movwf	fsr2h,c
  5687  002468  C018  FFDF         	movff	buf_push@v,indf2
  5688  00246C  EF70  F012         	goto	l145
  5689  002470                     l3477:
  5690  002470  0E02               	movlw	2
  5691  002472  181A               	xorwf	buf_push@buf^0,w,c
  5692  002474  A4D8               	btfss	status,2,c
  5693  002476  EF3F  F012         	goto	u3241
  5694  00247A  EF41  F012         	goto	u3240
  5695  00247E                     u3241:
  5696  00247E  EF5C  F012         	goto	l3481
  5697  002482                     u3240:
  5698  002482  501A               	movf	buf_push@buf^0,w,c
  5699  002484  0D02               	mullw	2
  5700  002486  0E31               	movlw	low _head
  5701  002488  24F3               	addwf	243,w,c
  5702  00248A  6ED9               	movwf	fsr2l,c
  5703  00248C  0E00               	movlw	high _head
  5704  00248E  20F4               	addwfc	prodh,w,c
  5705  002490  6EDA               	movwf	fsr2h,c
  5706  002492  CFDE F01D          	movff	postinc2,??_buf_push
  5707  002496  CFDD F01E          	movff	postdec2,??_buf_push+1
  5708  00249A  90D8               	bcf	status,0,c
  5709  00249C  361D               	rlcf	??_buf_push^0,f,c
  5710  00249E  361E               	rlcf	(??_buf_push+1)^0,f,c
  5711  0024A0  0E00               	movlw	low _queue
  5712  0024A2  241D               	addwf	??_buf_push^0,w,c
  5713  0024A4  6ED9               	movwf	fsr2l,c
  5714  0024A6  0E01               	movlw	high _queue
  5715  0024A8  201E               	addwfc	(??_buf_push+1)^0,w,c
  5716  0024AA  6EDA               	movwf	fsr2h,c
  5717  0024AC  C018  FFDE         	movff	buf_push@v,postinc2
  5718  0024B0  C019  FFDD         	movff	buf_push@v+1,postdec2
  5719  0024B4  EF70  F012         	goto	l145
  5720  0024B8                     l3481:
  5721  0024B8  501A               	movf	buf_push@buf^0,w,c
  5722  0024BA  0D02               	mullw	2
  5723  0024BC  0E31               	movlw	low _head
  5724  0024BE  24F3               	addwf	243,w,c
  5725  0024C0  6ED9               	movwf	fsr2l,c
  5726  0024C2  0E00               	movlw	high _head
  5727  0024C4  20F4               	addwfc	prodh,w,c
  5728  0024C6  6EDA               	movwf	fsr2h,c
  5729  0024C8  CFDE F01D          	movff	postinc2,??_buf_push
  5730  0024CC  CFDD F01E          	movff	postdec2,??_buf_push+1
  5731  0024D0  0EE6               	movlw	low _outbuf
  5732  0024D2  241D               	addwf	??_buf_push^0,w,c
  5733  0024D4  6ED9               	movwf	fsr2l,c
  5734  0024D6  0E02               	movlw	high _outbuf
  5735  0024D8  201E               	addwfc	(??_buf_push+1)^0,w,c
  5736  0024DA  6EDA               	movwf	fsr2h,c
  5737  0024DC  C018  FFDF         	movff	buf_push@v,indf2
  5738  0024E0                     l145:
  5739                           
  5740                           ;main.c: 87:             display_mode ^= 1;
  5741  0024E0  501A               	movf	buf_push@buf^0,w,c
  5742  0024E2  0D02               	mullw	2
  5743  0024E4  0E31               	movlw	low _head
  5744  0024E6  24F3               	addwf	243,w,c
  5745  0024E8  6ED9               	movwf	fsr2l,c
  5746  0024EA  0E00               	movlw	high _head
  5747  0024EC  20F4               	addwfc	prodh,w,c
  5748  0024EE  6EDA               	movwf	fsr2h,c
  5749  0024F0  2ADE               	incf	postinc2,f,c
  5750  0024F2  0E00               	movlw	0
  5751  0024F4  22DD               	addwfc	postdec2,f,c
  5752                           
  5753                           ;main.c: 88:         }
  5754  0024F6  501A               	movf	buf_push@buf^0,w,c
  5755  0024F8  0D02               	mullw	2
  5756  0024FA  0E31               	movlw	low _head
  5757  0024FC  24F3               	addwf	243,w,c
  5758  0024FE  6ED9               	movwf	fsr2l,c
  5759  002500  0E00               	movlw	high _head
  5760  002502  20F4               	addwfc	prodh,w,c
  5761  002504  6EDA               	movwf	fsr2h,c
  5762  002506  501B               	movf	buf_push@size^0,w,c
  5763  002508  18DE               	xorwf	postinc2,w,c
  5764  00250A  E107               	bnz	u3251
  5765  00250C  501C               	movf	(buf_push@size+1)^0,w,c
  5766  00250E  18DE               	xorwf	postinc2,w,c
  5767  002510  A4D8               	btfss	status,2,c
  5768  002512  EF8D  F012         	goto	u3251
  5769  002516  EF8F  F012         	goto	u3250
  5770  00251A                     u3251:
  5771  00251A  EF9D  F012         	goto	l3485
  5772  00251E                     u3250:
  5773  00251E  501A               	movf	buf_push@buf^0,w,c
  5774  002520  0D02               	mullw	2
  5775  002522  0E31               	movlw	low _head
  5776  002524  24F3               	addwf	243,w,c
  5777  002526  6ED9               	movwf	fsr2l,c
  5778  002528  0E00               	movlw	high _head
  5779  00252A  20F4               	addwfc	prodh,w,c
  5780  00252C  6EDA               	movwf	fsr2h,c
  5781  00252E  0E00               	movlw	0
  5782  002530  6EDE               	movwf	postinc2,c
  5783  002532  0E00               	movlw	0
  5784  002534  6EDD               	movwf	postdec2,c
  5785  002536  EF9D  F012         	goto	l150
  5786  00253A                     l3485:
  5787  00253A                     l150:
  5788  00253A  0012               	return		;funcret
  5789  00253C                     __end_of_buf_push:
  5790                           	callstack 0
  5791                           
  5792 ;; *************** function _handle_end *****************
  5793 ;; Defined at:
  5794 ;;		line 377 in file "main.c"
  5795 ;; Parameters:    Size  Location     Type
  5796 ;;		None
  5797 ;; Auto vars:     Size  Location     Type
  5798 ;;		None
  5799 ;; Return value:  Size  Location     Type
  5800 ;;                  1    wreg      void 
  5801 ;; Registers used:
  5802 ;;		wreg, fsr1l, fsr1h, fsr2l, fsr2h, status,2, status,0, prodl, prodh, cstack
  5803 ;; Tracked objects:
  5804 ;;		On entry : 0/0
  5805 ;;		On exit  : 0/0
  5806 ;;		Unchanged: 0/0
  5807 ;; Data sizes:     COMRAM   BANK0   BANK1   BANK2   BANK3   BANK4   BANK5   BANK6   BANK7   BANK8   BANK9  BANK10  BANK1
      +1  BANK12  BANK13  BANK14  BANK15
  5808 ;;      Params:         0       0       0       0       0       0       0       0       0       0       0       0       
      +0       0       0       0       0
  5809 ;;      Locals:         0       0       0       0       0       0       0       0       0       0       0       0       
      +0       0       0       0       0
  5810 ;;      Temps:          0       0       0       0       0       0       0       0       0       0       0       0       
      +0       0       0       0       0
  5811 ;;      Totals:         0       0       0       0       0       0       0       0       0       0       0       0       
      +0       0       0       0       0
  5812 ;;Total ram usage:        0 bytes
  5813 ;; Hardware stack levels used:    1
  5814 ;; Hardware stack levels required when called:    5
  5815 ;; This function calls:
  5816 ;;		_buf_isempty
  5817 ;;		_buf_pop
  5818 ;;		_disable_rxtx
  5819 ;;		_enable_rxtx
  5820 ;; This function is called by:
  5821 ;;		_parse_sim_messages
  5822 ;; This function uses a non-reentrant model
  5823 ;;
  5824                           
  5825                           	psect	text28
  5826  0030C0                     __ptext28:
  5827                           	callstack 0
  5828  0030C0                     _handle_end:
  5829                           	callstack 24
  5830  0030C0                     
  5831                           ;main.c: 378:         if(timer_previous==50){
  5832  0030C0  ECD3  F018         	call	_disable_rxtx	;wreg free
  5833  0030C4                     
  5834                           ;main.c: 379:             for(uint8_t i=0;i<4;i++){
  5835  0030C4  9ED5               	bcf	213,7,c	;volatile
  5836                           
  5837                           ;main.c: 381:                     if(park_slots[i][j]!=-1){
  5838  0030C6  EF70  F018         	goto	l263
  5839  0030CA                     l3695:
  5840                           
  5841                           ;main.c: 382:                         park_fee_counter[i][j]++;
  5842  0030CA  ECD3  F018         	call	_disable_rxtx	;wreg free
  5843  0030CE                     
  5844                           ;main.c: 383:                     }
  5845  0030CE  0E02               	movlw	2
  5846  0030D0  6E07               	movwf	(buf_pop@size+1)^0,c
  5847  0030D2  0E00               	movlw	0
  5848  0030D4  6E06               	movwf	buf_pop@size^0,c
  5849  0030D6  0E00               	movlw	0
  5850  0030D8  ECF8  F010         	call	_buf_pop
  5851  0030DC                     
  5852                           ;main.c: 384:                 }
  5853  0030DC  ECD0  F018         	call	_enable_rxtx	;wreg free
  5854  0030E0                     l263:
  5855                           
  5856                           ;main.c: 381:                     if(park_slots[i][j]!=-1){
  5857  0030E0  0E00               	movlw	0
  5858  0030E2  ECE8  F017         	call	_buf_isempty
  5859  0030E6  0900               	iorlw	0
  5860  0030E8  B4D8               	btfsc	status,2,c
  5861  0030EA  EF79  F018         	goto	u3461
  5862  0030EE  EF7B  F018         	goto	u3460
  5863  0030F2                     u3461:
  5864  0030F2  EF65  F018         	goto	l3695
  5865  0030F6                     u3460:
  5866  0030F6  0012               	return		;funcret
  5867  0030F8                     __end_of_handle_end:
  5868                           	callstack 0
  5869                           
  5870 ;; *************** function _packet_task *****************
  5871 ;; Defined at:
  5872 ;;		line 449 in file "main.c"
  5873 ;; Parameters:    Size  Location     Type
  5874 ;;		None
  5875 ;; Auto vars:     Size  Location     Type
  5876 ;;		None
  5877 ;; Return value:  Size  Location     Type
  5878 ;;                  1    wreg      void 
  5879 ;; Registers used:
  5880 ;;		wreg, fsr1l, fsr1h, fsr2l, fsr2h, status,2, status,0, prodl, prodh, cstack
  5881 ;; Tracked objects:
  5882 ;;		On entry : 0/0
  5883 ;;		On exit  : 0/0
  5884 ;;		Unchanged: 0/0
  5885 ;; Data sizes:     COMRAM   BANK0   BANK1   BANK2   BANK3   BANK4   BANK5   BANK6   BANK7   BANK8   BANK9  BANK10  BANK1
      +1  BANK12  BANK13  BANK14  BANK15
  5886 ;;      Params:         0       0       0       0       0       0       0       0       0       0       0       0       
      +0       0       0       0       0
  5887 ;;      Locals:         0       0       0       0       0       0       0       0       0       0       0       0       
      +0       0       0       0       0
  5888 ;;      Temps:          0       0       0       0       0       0       0       0       0       0       0       0       
      +0       0       0       0       0
  5889 ;;      Totals:         0       0       0       0       0       0       0       0       0       0       0       0       
      +0       0       0       0       0
  5890 ;;Total ram usage:        0 bytes
  5891 ;; Hardware stack levels used:    1
  5892 ;; Hardware stack levels required when called:    5
  5893 ;; This function calls:
  5894 ;;		_buf_isempty
  5895 ;;		_buf_pop
  5896 ;;		_disable_rxtx
  5897 ;;		_enable_rxtx
  5898 ;; This function is called by:
  5899 ;;		_main
  5900 ;; This function uses a non-reentrant model
  5901 ;;
  5902                           
  5903                           	psect	text29
  5904  002F44                     __ptext29:
  5905                           	callstack 0
  5906  002F44                     _packet_task:
  5907                           	callstack 25
  5908  002F44  EFBA  F017         	goto	l3845
  5909  002F48                     l3837:
  5910  002F48  ECD3  F018         	call	_disable_rxtx	;wreg free
  5911  002F4C  0E02               	movlw	2
  5912  002F4E  6E07               	movwf	(buf_pop@size+1)^0,c
  5913  002F50  0E00               	movlw	0
  5914  002F52  6E06               	movwf	buf_pop@size^0,c
  5915  002F54  0E00               	movlw	0
  5916  002F56  ECF8  F010         	call	_buf_pop
  5917  002F5A  0E20               	movlw	low _sim_msg_array
  5918  002F5C  0100               	movlb	0	; () banked
  5919  002F5E  25F1               	addwf	_sim_count& (0+255),w,b
  5920  002F60  6ED9               	movwf	fsr2l,c
  5921  002F62  0E01               	movlw	high _sim_msg_array
  5922  002F64  21F2               	addwfc	(_sim_count+1)& (0+255),w,b
  5923  002F66  6EDA               	movwf	fsr2h,c
  5924  002F68  C006  FFDF         	movff	?_buf_pop,indf2
  5925  002F6C                     
  5926                           ; BSR set to: 0
  5927  002F6C  4BF1               	infsnz	_sim_count& (0+255),f,b
  5928  002F6E  2BF2               	incf	(_sim_count+1)& (0+255),f,b
  5929  002F70                     
  5930                           ; BSR set to: 0
  5931  002F70  ECD0  F018         	call	_enable_rxtx	;wreg free
  5932  002F74                     l3845:
  5933  002F74  0E00               	movlw	0
  5934  002F76  ECE8  F017         	call	_buf_isempty
  5935  002F7A  0900               	iorlw	0
  5936  002F7C  B4D8               	btfsc	status,2,c
  5937  002F7E  EFC3  F017         	goto	u3701
  5938  002F82  EFC5  F017         	goto	u3700
  5939  002F86                     u3701:
  5940  002F86  EFA4  F017         	goto	l3837
  5941  002F8A                     u3700:
  5942  002F8A  0012               	return		;funcret
  5943  002F8C                     __end_of_packet_task:
  5944                           	callstack 0
  5945                           
  5946 ;; *************** function _enable_rxtx *****************
  5947 ;; Defined at:
  5948 ;;		line 77 in file "main.c"
  5949 ;; Parameters:    Size  Location     Type
  5950 ;;		None
  5951 ;; Auto vars:     Size  Location     Type
  5952 ;;		None
  5953 ;; Return value:  Size  Location     Type
  5954 ;;                  1    wreg      void 
  5955 ;; Registers used:
  5956 ;;		None
  5957 ;; Tracked objects:
  5958 ;;		On entry : 0/0
  5959 ;;		On exit  : 0/0
  5960 ;;		Unchanged: 0/0
  5961 ;; Data sizes:     COMRAM   BANK0   BANK1   BANK2   BANK3   BANK4   BANK5   BANK6   BANK7   BANK8   BANK9  BANK10  BANK1
      +1  BANK12  BANK13  BANK14  BANK15
  5962 ;;      Params:         0       0       0       0       0       0       0       0       0       0       0       0       
      +0       0       0       0       0
  5963 ;;      Locals:         0       0       0       0       0       0       0       0       0       0       0       0       
      +0       0       0       0       0
  5964 ;;      Temps:          0       0       0       0       0       0       0       0       0       0       0       0       
      +0       0       0       0       0
  5965 ;;      Totals:         0       0       0       0       0       0       0       0       0       0       0       0       
      +0       0       0       0       0
  5966 ;;Total ram usage:        0 bytes
  5967 ;; Hardware stack levels used:    1
  5968 ;; Hardware stack levels required when called:    3
  5969 ;; This function calls:
  5970 ;;		Nothing
  5971 ;; This function is called by:
  5972 ;;		_push_park_rsp
  5973 ;;		_push_park_fee_rsp
  5974 ;;		_handle_park
  5975 ;;		_handle_exit
  5976 ;;		_handle_end
  5977 ;;		_packet_task
  5978 ;; This function uses a non-reentrant model
  5979 ;;
  5980                           
  5981                           	psect	text30
  5982  0031A0                     __ptext30:
  5983                           	callstack 0
  5984  0031A0                     _enable_rxtx:
  5985                           	callstack 23
  5986  0031A0  8A9D               	bsf	157,5,c	;volatile
  5987  0031A2  889D               	bsf	157,4,c	;volatile
  5988  0031A4  0012               	return		;funcret
  5989  0031A6                     __end_of_enable_rxtx:
  5990                           	callstack 0
  5991                           
  5992 ;; *************** function _disable_rxtx *****************
  5993 ;; Defined at:
  5994 ;;		line 76 in file "main.c"
  5995 ;; Parameters:    Size  Location     Type
  5996 ;;		None
  5997 ;; Auto vars:     Size  Location     Type
  5998 ;;		None
  5999 ;; Return value:  Size  Location     Type
  6000 ;;                  1    wreg      void 
  6001 ;; Registers used:
  6002 ;;		None
  6003 ;; Tracked objects:
  6004 ;;		On entry : 0/0
  6005 ;;		On exit  : 0/0
  6006 ;;		Unchanged: 0/0
  6007 ;; Data sizes:     COMRAM   BANK0   BANK1   BANK2   BANK3   BANK4   BANK5   BANK6   BANK7   BANK8   BANK9  BANK10  BANK1
      +1  BANK12  BANK13  BANK14  BANK15
  6008 ;;      Params:         0       0       0       0       0       0       0       0       0       0       0       0       
      +0       0       0       0       0
  6009 ;;      Locals:         0       0       0       0       0       0       0       0       0       0       0       0       
      +0       0       0       0       0
  6010 ;;      Temps:          0       0       0       0       0       0       0       0       0       0       0       0       
      +0       0       0       0       0
  6011 ;;      Totals:         0       0       0       0       0       0       0       0       0       0       0       0       
      +0       0       0       0       0
  6012 ;;Total ram usage:        0 bytes
  6013 ;; Hardware stack levels used:    1
  6014 ;; Hardware stack levels required when called:    3
  6015 ;; This function calls:
  6016 ;;		Nothing
  6017 ;; This function is called by:
  6018 ;;		_push_park_rsp
  6019 ;;		_push_park_fee_rsp
  6020 ;;		_handle_park
  6021 ;;		_handle_exit
  6022 ;;		_handle_end
  6023 ;;		_packet_task
  6024 ;; This function uses a non-reentrant model
  6025 ;;
  6026                           
  6027                           	psect	text31
  6028  0031A6                     __ptext31:
  6029                           	callstack 0
  6030  0031A6                     _disable_rxtx:
  6031                           	callstack 23
  6032  0031A6  9A9D               	bcf	157,5,c	;volatile
  6033  0031A8  989D               	bcf	157,4,c	;volatile
  6034  0031AA  0012               	return		;funcret
  6035  0031AC                     __end_of_disable_rxtx:
  6036                           	callstack 0
  6037                           
  6038 ;; *************** function _init_vars *****************
  6039 ;; Defined at:
  6040 ;;		line 244 in file "main.c"
  6041 ;; Parameters:    Size  Location     Type
  6042 ;;		None
  6043 ;; Auto vars:     Size  Location     Type
  6044 ;;  j               1   28[COMRAM] unsigned char 
  6045 ;;  i               1   27[COMRAM] unsigned char 
  6046 ;; Return value:  Size  Location     Type
  6047 ;;                  1    wreg      void 
  6048 ;; Registers used:
  6049 ;;		wreg, fsr2l, fsr2h, status,2, status,0, prodl, prodh
  6050 ;; Tracked objects:
  6051 ;;		On entry : 0/0
  6052 ;;		On exit  : 0/0
  6053 ;;		Unchanged: 0/0
  6054 ;; Data sizes:     COMRAM   BANK0   BANK1   BANK2   BANK3   BANK4   BANK5   BANK6   BANK7   BANK8   BANK9  BANK10  BANK1
      +1  BANK12  BANK13  BANK14  BANK15
  6055 ;;      Params:         0       0       0       0       0       0       0       0       0       0       0       0       
      +0       0       0       0       0
  6056 ;;      Locals:         2       0       0       0       0       0       0       0       0       0       0       0       
      +0       0       0       0       0
  6057 ;;      Temps:          4       0       0       0       0       0       0       0       0       0       0       0       
      +0       0       0       0       0
  6058 ;;      Totals:         6       0       0       0       0       0       0       0       0       0       0       0       
      +0       0       0       0       0
  6059 ;;Total ram usage:        6 bytes
  6060 ;; Hardware stack levels used:    1
  6061 ;; Hardware stack levels required when called:    3
  6062 ;; This function calls:
  6063 ;;		Nothing
  6064 ;; This function is called by:
  6065 ;;		_main
  6066 ;; This function uses a non-reentrant model
  6067 ;;
  6068                           
  6069                           	psect	text32
  6070  002964                     __ptext32:
  6071                           	callstack 0
  6072  002964                     _init_vars:
  6073                           	callstack 27
  6074  002964                     
  6075                           ;main.c: 245:             }
  6076  002964  0E00               	movlw	0
  6077  002966  6E1C               	movwf	init_vars@i^0,c
  6078  002968                     l3765:
  6079                           
  6080                           ;main.c: 246:         }
  6081  002968  0E00               	movlw	0
  6082  00296A  6E1D               	movwf	init_vars@j^0,c
  6083  00296C                     l3771:
  6084                           
  6085                           ;main.c: 247:     }
  6086  00296C  501D               	movf	init_vars@j^0,w,c
  6087  00296E  0D02               	mullw	2
  6088  002970  CFF3 F018          	movff	prodl,??_init_vars
  6089  002974  CFF4 F019          	movff	prodh,??_init_vars+1
  6090  002978  501C               	movf	init_vars@i^0,w,c
  6091  00297A  0D14               	mullw	20
  6092  00297C  0E7C               	movlw	low _park_slots
  6093  00297E  6E1A               	movwf	(??_init_vars+2)^0,c
  6094  002980  0E01               	movlw	high _park_slots
  6095  002982  6E1B               	movwf	(??_init_vars+3)^0,c
  6096  002984  50F3               	movf	243,w,c
  6097  002986  261A               	addwf	(??_init_vars+2)^0,f,c
  6098  002988  50F4               	movf	244,w,c
  6099  00298A  221B               	addwfc	(??_init_vars+3)^0,f,c
  6100  00298C  5018               	movf	??_init_vars^0,w,c
  6101  00298E  241A               	addwf	(??_init_vars+2)^0,w,c
  6102  002990  6ED9               	movwf	fsr2l,c
  6103  002992  5019               	movf	(??_init_vars+1)^0,w,c
  6104  002994  201B               	addwfc	(??_init_vars+3)^0,w,c
  6105  002996  6EDA               	movwf	fsr2h,c
  6106  002998  0EFF               	movlw	255
  6107  00299A  6EDE               	movwf	postinc2,c
  6108  00299C  0EFF               	movlw	255
  6109  00299E  6EDD               	movwf	postdec2,c
  6110                           
  6111                           ;main.c: 248: 
  6112  0029A0  501D               	movf	init_vars@j^0,w,c
  6113  0029A2  0D02               	mullw	2
  6114  0029A4  CFF3 F018          	movff	prodl,??_init_vars
  6115  0029A8  CFF4 F019          	movff	prodh,??_init_vars+1
  6116  0029AC  501C               	movf	init_vars@i^0,w,c
  6117  0029AE  0D14               	mullw	20
  6118  0029B0  0E80               	movlw	low _park_fee_counter
  6119  0029B2  6E1A               	movwf	(??_init_vars+2)^0,c
  6120  0029B4  0E02               	movlw	high _park_fee_counter
  6121  0029B6  6E1B               	movwf	(??_init_vars+3)^0,c
  6122  0029B8  50F3               	movf	243,w,c
  6123  0029BA  261A               	addwf	(??_init_vars+2)^0,f,c
  6124  0029BC  50F4               	movf	244,w,c
  6125  0029BE  221B               	addwfc	(??_init_vars+3)^0,f,c
  6126  0029C0  5018               	movf	??_init_vars^0,w,c
  6127  0029C2  241A               	addwf	(??_init_vars+2)^0,w,c
  6128  0029C4  6ED9               	movwf	fsr2l,c
  6129  0029C6  5019               	movf	(??_init_vars+1)^0,w,c
  6130  0029C8  201B               	addwfc	(??_init_vars+3)^0,w,c
  6131  0029CA  6EDA               	movwf	fsr2h,c
  6132  0029CC  0E00               	movlw	0
  6133  0029CE  6EDE               	movwf	postinc2,c
  6134  0029D0  0E00               	movlw	0
  6135  0029D2  6EDD               	movwf	postdec2,c
  6136                           
  6137                           ;main.c: 249:     return;
  6138  0029D4  501D               	movf	init_vars@j^0,w,c
  6139  0029D6  0D02               	mullw	2
  6140  0029D8  CFF3 F018          	movff	prodl,??_init_vars
  6141  0029DC  CFF4 F019          	movff	prodh,??_init_vars+1
  6142  0029E0  501C               	movf	init_vars@i^0,w,c
  6143  0029E2  0D14               	mullw	20
  6144  0029E4  0E2C               	movlw	low _reserved_slots
  6145  0029E6  6E1A               	movwf	(??_init_vars+2)^0,c
  6146  0029E8  0E01               	movlw	high _reserved_slots
  6147  0029EA  6E1B               	movwf	(??_init_vars+3)^0,c
  6148  0029EC  50F3               	movf	243,w,c
  6149  0029EE  261A               	addwf	(??_init_vars+2)^0,f,c
  6150  0029F0  50F4               	movf	244,w,c
  6151  0029F2  221B               	addwfc	(??_init_vars+3)^0,f,c
  6152  0029F4  5018               	movf	??_init_vars^0,w,c
  6153  0029F6  241A               	addwf	(??_init_vars+2)^0,w,c
  6154  0029F8  6ED9               	movwf	fsr2l,c
  6155  0029FA  5019               	movf	(??_init_vars+1)^0,w,c
  6156  0029FC  201B               	addwfc	(??_init_vars+3)^0,w,c
  6157  0029FE  6EDA               	movwf	fsr2h,c
  6158  002A00  0EFF               	movlw	255
  6159  002A02  6EDE               	movwf	postinc2,c
  6160  002A04  0EFF               	movlw	255
  6161  002A06  6EDD               	movwf	postdec2,c
  6162  002A08                     
  6163                           ;main.c: 250: }
  6164  002A08  2A1D               	incf	init_vars@j^0,f,c
  6165  002A0A  0E09               	movlw	9
  6166  002A0C  641D               	cpfsgt	init_vars@j^0,c
  6167  002A0E  EF0B  F015         	goto	u3521
  6168  002A12  EF0D  F015         	goto	u3520
  6169  002A16                     u3521:
  6170  002A16  EFB6  F014         	goto	l3771
  6171  002A1A                     u3520:
  6172  002A1A                     
  6173                           ;main.c: 251: 
  6174  002A1A  2A1C               	incf	init_vars@i^0,f,c
  6175  002A1C  0E03               	movlw	3
  6176  002A1E  641C               	cpfsgt	init_vars@i^0,c
  6177  002A20  EF14  F015         	goto	u3531
  6178  002A24  EF16  F015         	goto	u3530
  6179  002A28                     u3531:
  6180  002A28  EFB4  F014         	goto	l3765
  6181  002A2C                     u3530:
  6182  002A2C  0012               	return		;funcret
  6183  002A2E                     __end_of_init_vars:
  6184                           	callstack 0
  6185                           
  6186 ;; *************** function _init_int *****************
  6187 ;; Defined at:
  6188 ;;		line 200 in file "main.c"
  6189 ;; Parameters:    Size  Location     Type
  6190 ;;		None
  6191 ;; Auto vars:     Size  Location     Type
  6192 ;;  current_port    1    0        unsigned char 
  6193 ;; Return value:  Size  Location     Type
  6194 ;;                  1    wreg      void 
  6195 ;; Registers used:
  6196 ;;		wreg, status,2
  6197 ;; Tracked objects:
  6198 ;;		On entry : 0/0
  6199 ;;		On exit  : 0/0
  6200 ;;		Unchanged: 0/0
  6201 ;; Data sizes:     COMRAM   BANK0   BANK1   BANK2   BANK3   BANK4   BANK5   BANK6   BANK7   BANK8   BANK9  BANK10  BANK1
      +1  BANK12  BANK13  BANK14  BANK15
  6202 ;;      Params:         0       0       0       0       0       0       0       0       0       0       0       0       
      +0       0       0       0       0
  6203 ;;      Locals:         1       0       0       0       0       0       0       0       0       0       0       0       
      +0       0       0       0       0
  6204 ;;      Temps:          0       0       0       0       0       0       0       0       0       0       0       0       
      +0       0       0       0       0
  6205 ;;      Totals:         1       0       0       0       0       0       0       0       0       0       0       0       
      +0       0       0       0       0
  6206 ;;Total ram usage:        1 bytes
  6207 ;; Hardware stack levels used:    1
  6208 ;; Hardware stack levels required when called:    3
  6209 ;; This function calls:
  6210 ;;		Nothing
  6211 ;; This function is called by:
  6212 ;;		_main
  6213 ;; This function uses a non-reentrant model
  6214 ;;
  6215                           
  6216                           	psect	text33
  6217  00304E                     __ptext33:
  6218                           	callstack 0
  6219  00304E                     _init_int:
  6220                           	callstack 27
  6221  00304E                     
  6222                           ;main.c: 202:     }
  6223  00304E  8E94               	bsf	148,7,c	;volatile
  6224                           
  6225                           ;main.c: 203:     if(spot[0] != -1){
  6226  003050  9C94               	bcf	148,6,c	;volatile
  6227  003052                     
  6228                           ;main.c: 206:         park_slots[spot[0]][spot[1]] = car_id;
  6229  003052  0E00               	movlw	0
  6230  003054  6EAC               	movwf	172,c	;volatile
  6231                           
  6232                           ;main.c: 208:         return 1;
  6233  003056  0E90               	movlw	144
  6234  003058  6EAB               	movwf	171,c	;volatile
  6235  00305A                     
  6236                           ;main.c: 210:         return 0;
  6237  00305A  867E               	bsf	126,3,c	;volatile
  6238                           
  6239                           ;main.c: 211:     }
  6240  00305C  0E00               	movlw	0
  6241  00305E  6E7F               	movwf	127,c	;volatile
  6242                           
  6243                           ;main.c: 212: }
  6244  003060  0E15               	movlw	21
  6245  003062  6EAF               	movwf	175,c	;volatile
  6246                           
  6247                           ;main.c: 215: void handle_park(int car_id){
  6248  003064  0E00               	movlw	0
  6249  003066  6EF2               	movwf	242,c	;volatile
  6250                           
  6251                           ;main.c: 216:     if(try_park(car_id) == 0){
  6252  003068  0E10               	movlw	16
  6253  00306A  6E93               	movwf	147,c	;volatile
  6254  00306C  5081               	movf	129,w,c	;volatile
  6255  00306E                     
  6256                           ;main.c: 218:         buf_push(car_id, QUEUE, 16);
  6257  00306E  90F2               	bcf	242,0,c	;volatile
  6258  003070                     
  6259                           ;main.c: 219:         enable_rxtx();
  6260  003070  86F2               	bsf	242,3,c	;volatile
  6261  003072                     
  6262                           ;main.c: 220:         return;
  6263  003072  80F1               	bsf	241,0,c	;volatile
  6264  003074                     
  6265                           ;main.c: 223: 
  6266  003074  989D               	bcf	157,4,c	;volatile
  6267  003076                     
  6268                           ;main.c: 224: void handle_exit(int car_id){
  6269  003076  8A9D               	bsf	157,5,c	;volatile
  6270                           
  6271                           ;main.c: 225:     int exit_fee = 0;
  6272  003078  0E00               	movlw	0
  6273  00307A  6E9E               	movwf	158,c	;volatile
  6274                           
  6275                           ;main.c: 227:         for(uint8_t j=0;j<10;j++){
  6276  00307C  0E08               	movlw	8
  6277  00307E  6ED5               	movwf	213,c	;volatile
  6278  003080                     
  6279                           ;main.c: 228:             if(park_slots[i][j]==car_id){
  6280  003080  8CF2               	bsf	242,6,c	;volatile
  6281  003082                     
  6282                           ;main.c: 229:                 park_slots[i][j] = -1;
  6283  003082  8AF2               	bsf	242,5,c	;volatile
  6284  003084                     
  6285                           ;main.c: 230:                 if(reserved_slots[i][j]!=car_id){
  6286  003084  8EF2               	bsf	242,7,c	;volatile
  6287  003086  0012               	return		;funcret
  6288  003088                     __end_of_init_int:
  6289                           	callstack 0
  6290                           
  6291 ;; *************** function _init_adc *****************
  6292 ;; Defined at:
  6293 ;;		line 233 in file "main.c"
  6294 ;; Parameters:    Size  Location     Type
  6295 ;;		None
  6296 ;; Auto vars:     Size  Location     Type
  6297 ;;		None
  6298 ;; Return value:  Size  Location     Type
  6299 ;;                  1    wreg      void 
  6300 ;; Registers used:
  6301 ;;		wreg, status,2
  6302 ;; Tracked objects:
  6303 ;;		On entry : 0/0
  6304 ;;		On exit  : 0/0
  6305 ;;		Unchanged: 0/0
  6306 ;; Data sizes:     COMRAM   BANK0   BANK1   BANK2   BANK3   BANK4   BANK5   BANK6   BANK7   BANK8   BANK9  BANK10  BANK1
      +1  BANK12  BANK13  BANK14  BANK15
  6307 ;;      Params:         0       0       0       0       0       0       0       0       0       0       0       0       
      +0       0       0       0       0
  6308 ;;      Locals:         0       0       0       0       0       0       0       0       0       0       0       0       
      +0       0       0       0       0
  6309 ;;      Temps:          0       0       0       0       0       0       0       0       0       0       0       0       
      +0       0       0       0       0
  6310 ;;      Totals:         0       0       0       0       0       0       0       0       0       0       0       0       
      +0       0       0       0       0
  6311 ;;Total ram usage:        0 bytes
  6312 ;; Hardware stack levels used:    1
  6313 ;; Hardware stack levels required when called:    3
  6314 ;; This function calls:
  6315 ;;		Nothing
  6316 ;; This function is called by:
  6317 ;;		_main
  6318 ;; This function uses a non-reentrant model
  6319 ;;
  6320                           
  6321                           	psect	text34
  6322  003154                     __ptext34:
  6323                           	callstack 0
  6324  003154                     _init_adc:
  6325                           	callstack 27
  6326  003154                     
  6327                           ;main.c: 235:                 empty_space++;
  6328  003154  0E10               	movlw	16
  6329  003156  6E99               	movwf	153,c	;volatile
  6330                           
  6331                           ;main.c: 237:                 push_park_fee_rsp(car_id, exit_fee);
  6332  003158  0E31               	movlw	49
  6333  00315A  6EC2               	movwf	194,c	;volatile
  6334                           
  6335                           ;main.c: 238:                 if(!buf_isempty(QUEUE)){
  6336  00315C  0E00               	movlw	0
  6337  00315E  6EC1               	movwf	193,c	;volatile
  6338                           
  6339                           ;main.c: 239:                     disable_rxtx();
  6340  003160  0EAA               	movlw	170
  6341  003162  6EC0               	movwf	192,c	;volatile
  6342                           
  6343                           ;main.c: 240:                     uint16_t ready_car_id = buf_pop(QUEUE,16);
  6344  003164  0E00               	movlw	0
  6345  003166  6EC4               	movwf	196,c	;volatile
  6346                           
  6347                           ;main.c: 241:                     enable_rxtx();
  6348  003168  0E00               	movlw	0
  6349  00316A  6EC3               	movwf	195,c	;volatile
  6350  00316C  0012               	return		;funcret
  6351  00316E                     __end_of_init_adc:
  6352                           	callstack 0
  6353                           
  6354 ;; *************** function _highPriorityISR *****************
  6355 ;; Defined at:
  6356 ;;		line 137 in file "main.c"
  6357 ;; Parameters:    Size  Location     Type
  6358 ;;		None
  6359 ;; Auto vars:     Size  Location     Type
  6360 ;;  rb4             1   22[COMRAM] unsigned char 
  6361 ;;  current         1   21[COMRAM] unsigned char 
  6362 ;; Return value:  Size  Location     Type
  6363 ;;                  1    wreg      void 
  6364 ;; Registers used:
  6365 ;;		wreg, fsr1l, fsr1h, fsr2l, fsr2h, status,2, status,0, prodl, prodh, cstack
  6366 ;; Tracked objects:
  6367 ;;		On entry : 0/0
  6368 ;;		On exit  : 0/0
  6369 ;;		Unchanged: 0/0
  6370 ;; Data sizes:     COMRAM   BANK0   BANK1   BANK2   BANK3   BANK4   BANK5   BANK6   BANK7   BANK8   BANK9  BANK10  BANK1
      +1  BANK12  BANK13  BANK14  BANK15
  6371 ;;      Params:         0       0       0       0       0       0       0       0       0       0       0       0       
      +0       0       0       0       0
  6372 ;;      Locals:         2       0       0       0       0       0       0       0       0       0       0       0       
      +0       0       0       0       0
  6373 ;;      Temps:          8       0       0       0       0       0       0       0       0       0       0       0       
      +0       0       0       0       0
  6374 ;;      Totals:        10       0       0       0       0       0       0       0       0       0       0       0       
      +0       0       0       0       0
  6375 ;;Total ram usage:       10 bytes
  6376 ;; Hardware stack levels used:    1
  6377 ;; Hardware stack levels required when called:    2
  6378 ;; This function calls:
  6379 ;;		___lwdiv
  6380 ;;		___lwmod
  6381 ;;		_buf_pop
  6382 ;;		_buf_push_inbuf
  6383 ;;		_update_display
  6384 ;; This function is called by:
  6385 ;;		Interrupt level 2
  6386 ;; This function uses a non-reentrant model
  6387 ;;
  6388                           
  6389                           	psect	intcode
  6390  000008                     __pintcode:
  6391                           	callstack 0
  6392  000008                     _highPriorityISR:
  6393                           	callstack 15
  6394                           
  6395                           ;incstack = 0
  6396  000008  8248               	bsf	int$flags,1,c	;set compiler interrupt flag (level 2)
  6397  00000A  ED29  F010         	call	int_func,f	;refresh shadow registers
  6398                           
  6399                           	psect	intcode_body
  6400  002052                     __pintcode_body:
  6401                           	callstack 15
  6402  002052                     int_func:
  6403                           	callstack 15
  6404  002052  0006               	pop		; remove dummy address from shadow register refresh
  6405  002054  CFE1 F010          	movff	fsr1l,??_highPriorityISR+2
  6406  002058  CFE2 F011          	movff	fsr1h,??_highPriorityISR+3
  6407  00205C  CFD9 F012          	movff	fsr2l,??_highPriorityISR+4
  6408  002060  CFDA F013          	movff	fsr2h,??_highPriorityISR+5
  6409  002064  CFF3 F014          	movff	prodl,??_highPriorityISR+6
  6410  002068  CFF4 F015          	movff	prodh,??_highPriorityISR+7
  6411  00206C                     
  6412                           ;main.c: 138:     ADRESL = 0x00;
  6413  00206C  AA9E               	btfss	158,5,c	;volatile
  6414  00206E  EF3B  F010         	goto	i2u371_41
  6415  002072  EF3D  F010         	goto	i2u371_40
  6416  002076                     i2u371_41:
  6417  002076  EF59  F010         	goto	i2l3855
  6418  00207A                     i2u371_40:
  6419  00207A                     
  6420                           ;main.c: 139: }
  6421  00207A  9A9E               	bcf	158,5,c	;volatile
  6422                           
  6423                           ;main.c: 140: 
  6424  00207C  CFAE F043          	movff	4014,_c	;volatile
  6425                           
  6426                           ;main.c: 141: void init_vars(){
  6427  002080  B4AB               	btfsc	171,2,c	;volatile
  6428  002082  EF45  F010         	goto	i2u372_41
  6429  002086  EF47  F010         	goto	i2u372_40
  6430  00208A                     i2u372_41:
  6431  00208A  EF4E  F010         	goto	i2l187
  6432  00208E                     i2u372_40:
  6433  00208E  A2AB               	btfss	171,1,c	;volatile
  6434  002090  EF4C  F010         	goto	i2u373_41
  6435  002094  EF4E  F010         	goto	i2u373_40
  6436  002098                     i2u373_41:
  6437  002098  EF54  F010         	goto	i2l3853
  6438  00209C                     i2u373_40:
  6439  00209C                     i2l187:
  6440                           
  6441                           ;main.c: 142:     for(uint8_t i=0;i<4;i++){
  6442  00209C  94AB               	bcf	171,2,c	;volatile
  6443                           
  6444                           ;main.c: 143:         for(uint8_t j=0;j<10;j++){
  6445  00209E  92AB               	bcf	171,1,c	;volatile
  6446                           
  6447                           ;main.c: 144:             park_slots[i][j] = -1;
  6448  0020A0  98AB               	bcf	171,4,c	;volatile
  6449                           
  6450                           ;main.c: 145:             park_fee_counter[i][j] = 0;
  6451  0020A2  88AB               	bsf	171,4,c	;volatile
  6452                           
  6453                           ;main.c: 146:             reserved_slots[i][j] = -1;
  6454  0020A4  EF59  F010         	goto	i2l3855
  6455  0020A8                     i2l3853:
  6456                           
  6457                           ;main.c: 148:     }
  6458  0020A8  5043               	movf	_c^0,w,c
  6459  0020AA  EC25  F017         	call	_buf_push_inbuf
  6460  0020AE  0100               	movlb	0	; () banked
  6461  0020B0  6FF6               	movwf	_msg_last_char& (0+255),b
  6462  0020B2                     i2l3855:
  6463                           
  6464                           ;main.c: 152:     char response_buf[12];
  6465  0020B2  A89E               	btfss	158,4,c	;volatile
  6466  0020B4  EF5E  F010         	goto	i2u374_41
  6467  0020B8  EF60  F010         	goto	i2u374_40
  6468  0020BC                     i2u374_41:
  6469  0020BC  EF80  F010         	goto	i2l189
  6470  0020C0                     i2u374_40:
  6471  0020C0                     
  6472                           ;main.c: 153:     sprintf(response_buf, "$SPC%03u%c%02u#", car_id, (level+'A'), spot+1);
  6473  0020C0  0E02               	movlw	2
  6474  0020C2  6E07               	movwf	(buf_pop@size+1)^0,c
  6475  0020C4  0E00               	movlw	0
  6476  0020C6  6E06               	movwf	buf_pop@size^0,c
  6477  0020C8  0E01               	movlw	1
  6478  0020CA  ECF8  F010         	call	_buf_pop
  6479  0020CE  5006               	movf	?_buf_pop^0,w,c
  6480  0020D0  6E44               	movwf	_v^0,c
  6481  0020D2                     
  6482                           ;main.c: 154: 
  6483  0020D2  0E23               	movlw	35
  6484  0020D4  1844               	xorwf	_v^0,w,c
  6485  0020D6  A4D8               	btfss	status,2,c
  6486  0020D8  EF70  F010         	goto	i2u375_41
  6487  0020DC  EF72  F010         	goto	i2u375_40
  6488  0020E0                     i2u375_41:
  6489  0020E0  EF7E  F010         	goto	i2l190
  6490  0020E4                     i2u375_40:
  6491  0020E4                     
  6492                           ;main.c: 155:     for(uint8_t i=0; i<11; i++){
  6493  0020E4  C044  FFAD         	movff	_v,4013	;volatile
  6494  0020E8                     i2l191:
  6495  0020E8  A2AC               	btfss	172,1,c	;volatile
  6496  0020EA  EF79  F010         	goto	i2u376_41
  6497  0020EE  EF7B  F010         	goto	i2u376_40
  6498  0020F2                     i2u376_41:
  6499  0020F2  EF74  F010         	goto	i2l191
  6500  0020F6                     i2u376_40:
  6501  0020F6                     
  6502                           ;main.c: 157:         buf_push(response_buf[i], OUTBUF, 512);
  6503  0020F6  9AAC               	bcf	172,5,c	;volatile
  6504                           
  6505                           ;main.c: 158:         enable_rxtx();
  6506  0020F8  EF80  F010         	goto	i2l189
  6507  0020FC                     i2l190:
  6508                           
  6509                           ;main.c: 160: }
  6510  0020FC  C044  FFAD         	movff	_v,4013	;volatile
  6511  002100                     i2l189:
  6512                           
  6513                           ;main.c: 165: 
  6514  002100  A4F2               	btfss	242,2,c	;volatile
  6515  002102  EF85  F010         	goto	i2u377_41
  6516  002106  EF87  F010         	goto	i2u377_40
  6517  00210A                     i2u377_41:
  6518  00210A  EFC8  F010         	goto	i2l3881
  6519  00210E                     i2u377_40:
  6520  00210E                     
  6521                           ;main.c: 166:     for(uint8_t i=0; i<11; i++){
  6522  00210E  94F2               	bcf	242,2,c	;volatile
  6523  002110                     
  6524                           ;main.c: 167:         disable_rxtx();
  6525  002110  0E3C               	movlw	60
  6526  002112  6ED7               	movwf	215,c	;volatile
  6527                           
  6528                           ;main.c: 168:         buf_push(response_buf[i], OUTBUF, 512);
  6529  002114  0EAF               	movlw	175
  6530  002116  6ED6               	movwf	214,c	;volatile
  6531  002118                     
  6532                           ;main.c: 169:         enable_rxtx();
  6533  002118  0100               	movlb	0	; () banked
  6534  00211A  2BF4               	incf	_timer_previous& (0+255),f,b
  6535  00211C                     
  6536                           ; BSR set to: 0
  6537                           ;main.c: 170:     }
  6538  00211C  2BF7               	incf	_pic_msg_count& (0+255),f,b
  6539  00211E                     
  6540                           ; BSR set to: 0
  6541                           ;main.c: 171: }
  6542  00211E  2BF3               	incf	_timer_adc& (0+255),f,b
  6543  002120                     
  6544                           ; BSR set to: 0
  6545                           ;main.c: 173: void push_sub_rsp(int car_id, int fee){
  6546  002120  ECA1  F015         	call	_update_display	;wreg free
  6547  002124                     
  6548                           ;main.c: 174:     char response_buf[11];
  6549  002124  503F               	movf	_digit^0,w,c
  6550  002126  0D02               	mullw	2
  6551  002128  0EF6               	movlw	low _tens_power
  6552  00212A  24F3               	addwf	243,w,c
  6553  00212C  6ED9               	movwf	fsr2l,c
  6554  00212E  0E01               	movlw	high _tens_power
  6555  002130  20F4               	addwfc	prodh,w,c
  6556  002132  6EDA               	movwf	fsr2h,c
  6557  002134  CFDE F003          	movff	postinc2,___lwdiv@divisor
  6558  002138  CFDD F004          	movff	postdec2,___lwdiv@divisor+1
  6559  00213C  C0FC  F001         	movff	_seven_seg_value,___lwdiv@dividend
  6560  002140  C0FD  F002         	movff	_seven_seg_value+1,___lwdiv@dividend+1
  6561  002144  ECE2  F015         	call	___lwdiv	;wreg free
  6562  002148  C001  F008         	movff	?___lwdiv,___lwmod@dividend
  6563  00214C  C002  F009         	movff	?___lwdiv+1,___lwmod@dividend+1
  6564  002150  0E00               	movlw	0
  6565  002152  6E0B               	movwf	(___lwmod@divisor+1)^0,c
  6566  002154  0E0A               	movlw	10
  6567  002156  6E0A               	movwf	___lwmod@divisor^0,c
  6568  002158  ECF3  F016         	call	___lwmod	;wreg free
  6569  00215C  0EEC               	movlw	low _digit_map
  6570  00215E  2408               	addwf	?___lwmod^0,w,c
  6571  002160  6ED9               	movwf	fsr2l,c
  6572  002162  0E01               	movlw	high _digit_map
  6573  002164  2009               	addwfc	(?___lwmod+1)^0,w,c
  6574  002166  6EDA               	movwf	fsr2h,c
  6575  002168  50DF               	movf	indf2,w,c
  6576  00216A  6E88               	movwf	136,c	;volatile
  6577  00216C                     
  6578                           ;main.c: 175:     sprintf(response_buf, "$RES%03u%02u#", car_id, fee);
  6579  00216C  503F               	movf	_digit^0,w,c
  6580  00216E  0803               	sublw	3
  6581  002170  6E0E               	movwf	??_highPriorityISR^0,c
  6582  002172  0E01               	movlw	1
  6583  002174  6E0F               	movwf	(??_highPriorityISR+1)^0,c
  6584  002176  2A0E               	incf	??_highPriorityISR^0,f,c
  6585  002178  EFC0  F010         	goto	i2u378_44
  6586  00217C                     i2u378_45:
  6587  00217C  90D8               	bcf	status,0,c
  6588  00217E  360F               	rlcf	(??_highPriorityISR+1)^0,f,c
  6589  002180                     i2u378_44:
  6590  002180  2E0E               	decfsz	??_highPriorityISR^0,f,c
  6591  002182  EFBE  F010         	goto	i2u378_45
  6592  002186  500F               	movf	(??_highPriorityISR+1)^0,w,c
  6593  002188  6E87               	movwf	135,c	;volatile
  6594  00218A                     
  6595                           ;main.c: 176: 
  6596  00218A  283F               	incf	_digit^0,w,c
  6597  00218C  0B03               	andlw	3
  6598  00218E  6E3F               	movwf	_digit^0,c
  6599  002190                     i2l3881:
  6600                           
  6601                           ;main.c: 179:     }
  6602  002190  A0F2               	btfss	242,0,c	;volatile
  6603  002192  EFCD  F010         	goto	i2u379_41
  6604  002196  EFCF  F010         	goto	i2u379_40
  6605  00219A                     i2u379_41:
  6606  00219A  EFEA  F010         	goto	i2l198
  6607  00219E                     i2u379_40:
  6608  00219E                     
  6609                           ;main.c: 181: 
  6610  00219E  CF81 F016          	movff	3969,highPriorityISR@current	;volatile
  6611  0021A2                     
  6612                           ;main.c: 186:     for(uint8_t i=0; i<4; i++){
  6613  0021A2  3816               	swapf	highPriorityISR@current^0,w,c
  6614  0021A4  0B0F               	andlw	15
  6615  0021A6  0B01               	andlw	1
  6616  0021A8  6E17               	movwf	highPriorityISR@rb4^0,c
  6617                           
  6618                           ;main.c: 188:             if(reserved_slots[i][j] == car_id && park_slots[i][j] == -1){
  6619  0021AA  0442               	decf	_prev_rb4^0,w,c
  6620  0021AC  A4D8               	btfss	status,2,c
  6621  0021AE  EFDB  F010         	goto	i2u380_41
  6622  0021B2  EFDD  F010         	goto	i2u380_40
  6623  0021B6                     i2u380_41:
  6624  0021B6  EFE7  F010         	goto	i2l3891
  6625  0021BA                     i2u380_40:
  6626  0021BA  5017               	movf	highPriorityISR@rb4^0,w,c
  6627  0021BC  A4D8               	btfss	status,2,c
  6628  0021BE  EFE3  F010         	goto	i2u381_41
  6629  0021C2  EFE5  F010         	goto	i2u381_40
  6630  0021C6                     i2u381_41:
  6631  0021C6  EFE7  F010         	goto	i2l3891
  6632  0021CA                     i2u381_40:
  6633  0021CA                     
  6634                           ;main.c: 190:                 empty_space--;
  6635  0021CA  0E01               	movlw	1
  6636  0021CC  1A41               	xorwf	_display_mode^0,f,c
  6637  0021CE                     i2l3891:
  6638                           
  6639                           ;main.c: 192:                 return 2;
  6640  0021CE  C017  F042         	movff	highPriorityISR@rb4,_prev_rb4
  6641  0021D2                     
  6642                           ;main.c: 195: 
  6643  0021D2  90F2               	bcf	242,0,c	;volatile
  6644  0021D4                     i2l198:
  6645  0021D4  C015  FFF4         	movff	??_highPriorityISR+7,prodh
  6646  0021D8  C014  FFF3         	movff	??_highPriorityISR+6,prodl
  6647  0021DC  C013  FFDA         	movff	??_highPriorityISR+5,fsr2h
  6648  0021E0  C012  FFD9         	movff	??_highPriorityISR+4,fsr2l
  6649  0021E4  C011  FFE2         	movff	??_highPriorityISR+3,fsr1h
  6650  0021E8  C010  FFE1         	movff	??_highPriorityISR+2,fsr1l
  6651  0021EC  9248               	bcf	int$flags,1,c	;clear compiler interrupt flag (level 2)
  6652  0021EE  0011               	retfie		f
  6653  0021F0                     __end_of_highPriorityISR:
  6654                           	callstack 0
  6655                           
  6656 ;; *************** function _update_display *****************
  6657 ;; Defined at:
  6658 ;;		line 125 in file "main.c"
  6659 ;; Parameters:    Size  Location     Type
  6660 ;;		None
  6661 ;; Auto vars:     Size  Location     Type
  6662 ;;  j               1    7[COMRAM] unsigned char 
  6663 ;;  empty_count     1    6[COMRAM] unsigned char 
  6664 ;; Return value:  Size  Location     Type
  6665 ;;                  1    wreg      void 
  6666 ;; Registers used:
  6667 ;;		wreg, fsr2l, fsr2h, status,2, status,0, prodl, prodh
  6668 ;; Tracked objects:
  6669 ;;		On entry : 0/0
  6670 ;;		On exit  : 0/0
  6671 ;;		Unchanged: 0/0
  6672 ;; Data sizes:     COMRAM   BANK0   BANK1   BANK2   BANK3   BANK4   BANK5   BANK6   BANK7   BANK8   BANK9  BANK10  BANK1
      +1  BANK12  BANK13  BANK14  BANK15
  6673 ;;      Params:         0       0       0       0       0       0       0       0       0       0       0       0       
      +0       0       0       0       0
  6674 ;;      Locals:         2       0       0       0       0       0       0       0       0       0       0       0       
      +0       0       0       0       0
  6675 ;;      Temps:          6       0       0       0       0       0       0       0       0       0       0       0       
      +0       0       0       0       0
  6676 ;;      Totals:         8       0       0       0       0       0       0       0       0       0       0       0       
      +0       0       0       0       0
  6677 ;;Total ram usage:        8 bytes
  6678 ;; Hardware stack levels used:    1
  6679 ;; This function calls:
  6680 ;;		Nothing
  6681 ;; This function is called by:
  6682 ;;		_highPriorityISR
  6683 ;; This function uses a non-reentrant model
  6684 ;;
  6685                           
  6686                           	psect	text36
  6687  002B42                     __ptext36:
  6688                           	callstack 0
  6689  002B42                     _update_display:
  6690                           	callstack 16
  6691  002B42                     
  6692                           ;main.c: 126:     INTCONbits.TMR0IE = 1;
  6693  002B42  0441               	decf	_display_mode^0,w,c
  6694  002B44  A4D8               	btfss	status,2,c
  6695  002B46  EFA7  F015         	goto	i2u219_41
  6696  002B4A  EFA9  F015         	goto	i2u219_40
  6697  002B4E                     i2u219_41:
  6698  002B4E  EFDD  F015         	goto	i2l174
  6699  002B52                     i2u219_40:
  6700  002B52                     
  6701                           ;main.c: 127:  INTCONbits.GIE = 1;
  6702  002B52  0E00               	movlw	0
  6703  002B54  6E07               	movwf	update_display@empty_count^0,c
  6704                           
  6705                           ;main.c: 128: }
  6706  002B56  0E00               	movlw	0
  6707  002B58  6E08               	movwf	update_display@j^0,c
  6708  002B5A                     i2l2785:
  6709                           
  6710                           ;main.c: 129: 
  6711  002B5A  5008               	movf	update_display@j^0,w,c
  6712  002B5C  0D02               	mullw	2
  6713  002B5E  CFF3 F001          	movff	prodl,??_update_display
  6714  002B62  CFF4 F002          	movff	prodh,??_update_display+1
  6715  002B66  5040               	movf	_selected_level^0,w,c
  6716  002B68  0D14               	mullw	20
  6717  002B6A  0E7C               	movlw	low _park_slots
  6718  002B6C  6E03               	movwf	(??_update_display+2)^0,c
  6719  002B6E  0E01               	movlw	high _park_slots
  6720  002B70  6E04               	movwf	(??_update_display+3)^0,c
  6721  002B72  50F3               	movf	243,w,c
  6722  002B74  2603               	addwf	(??_update_display+2)^0,f,c
  6723  002B76  50F4               	movf	244,w,c
  6724  002B78  2204               	addwfc	(??_update_display+3)^0,f,c
  6725  002B7A  5001               	movf	??_update_display^0,w,c
  6726  002B7C  2403               	addwf	(??_update_display+2)^0,w,c
  6727  002B7E  6ED9               	movwf	fsr2l,c
  6728  002B80  5002               	movf	(??_update_display+1)^0,w,c
  6729  002B82  2004               	addwfc	(??_update_display+3)^0,w,c
  6730  002B84  6EDA               	movwf	fsr2h,c
  6731  002B86  28DE               	incf	postinc2,w,c
  6732  002B88  E106               	bnz	i2u220_41
  6733  002B8A  28DE               	incf	postinc2,w,c
  6734  002B8C  A4D8               	btfss	status,2,c
  6735  002B8E  EFCB  F015         	goto	i2u220_41
  6736  002B92  EFCD  F015         	goto	i2u220_40
  6737  002B96                     i2u220_41:
  6738  002B96  EFCE  F015         	goto	i2l177
  6739  002B9A                     i2u220_40:
  6740  002B9A  2A07               	incf	update_display@empty_count^0,f,c
  6741  002B9C                     i2l177:
  6742                           
  6743                           ;main.c: 130: void init_adc(){
  6744  002B9C  2A08               	incf	update_display@j^0,f,c
  6745  002B9E  0E09               	movlw	9
  6746  002BA0  6408               	cpfsgt	update_display@j^0,c
  6747  002BA2  EFD5  F015         	goto	i2u221_41
  6748  002BA6  EFD7  F015         	goto	i2u221_40
  6749  002BAA                     i2u221_41:
  6750  002BAA  EFAD  F015         	goto	i2l2785
  6751  002BAE                     i2u221_40:
  6752  002BAE                     
  6753                           ;main.c: 131: 
  6754  002BAE  C007  F0FC         	movff	update_display@empty_count,_seven_seg_value
  6755  002BB2  0100               	movlb	0	; () banked
  6756  002BB4  6BFD               	clrf	(_seven_seg_value+1)& (0+255),b
  6757                           
  6758                           ;main.c: 132:     TRISH = 0x10;
  6759  002BB6  EFE1  F015         	goto	i2l179
  6760  002BBA                     i2l174:
  6761                           
  6762                           ;main.c: 133: 
  6763  002BBA  C03D  F0FC         	movff	_total_money,_seven_seg_value
  6764  002BBE  C03E  F0FD         	movff	_total_money+1,_seven_seg_value+1
  6765  002BC2                     i2l179:
  6766  002BC2  0012               	return		;funcret
  6767  002BC4                     __end_of_update_display:
  6768                           	callstack 0
  6769                           
  6770 ;; *************** function _buf_push_inbuf *****************
  6771 ;; Defined at:
  6772 ;;		line 92 in file "main.c"
  6773 ;; Parameters:    Size  Location     Type
  6774 ;;  v               1    wreg     unsigned char 
  6775 ;; Auto vars:     Size  Location     Type
  6776 ;;  v               1    0[COMRAM] unsigned char 
  6777 ;; Return value:  Size  Location     Type
  6778 ;;                  1    wreg      unsigned char 
  6779 ;; Registers used:
  6780 ;;		wreg, fsr2l, fsr2h, status,2, status,0
  6781 ;; Tracked objects:
  6782 ;;		On entry : 0/0
  6783 ;;		On exit  : 0/0
  6784 ;;		Unchanged: 0/0
  6785 ;; Data sizes:     COMRAM   BANK0   BANK1   BANK2   BANK3   BANK4   BANK5   BANK6   BANK7   BANK8   BANK9  BANK10  BANK1
      +1  BANK12  BANK13  BANK14  BANK15
  6786 ;;      Params:         0       0       0       0       0       0       0       0       0       0       0       0       
      +0       0       0       0       0
  6787 ;;      Locals:         1       0       0       0       0       0       0       0       0       0       0       0       
      +0       0       0       0       0
  6788 ;;      Temps:          0       0       0       0       0       0       0       0       0       0       0       0       
      +0       0       0       0       0
  6789 ;;      Totals:         1       0       0       0       0       0       0       0       0       0       0       0       
      +0       0       0       0       0
  6790 ;;Total ram usage:        1 bytes
  6791 ;; Hardware stack levels used:    1
  6792 ;; This function calls:
  6793 ;;		Nothing
  6794 ;; This function is called by:
  6795 ;;		_highPriorityISR
  6796 ;; This function uses a non-reentrant model
  6797 ;;
  6798                           
  6799                           	psect	text37
  6800  002E4A                     __ptext37:
  6801                           	callstack 0
  6802  002E4A                     _buf_push_inbuf:
  6803                           	callstack 16
  6804                           
  6805                           ;incstack = 0
  6806                           ;buf_push_inbuf@v stored from wreg
  6807  002E4A  6E01               	movwf	buf_push_inbuf@v^0,c
  6808  002E4C                     
  6809                           ;main.c: 93:     }
  6810  002E4C  0EE6               	movlw	low _inbuf
  6811  002E4E  2431               	addwf	_head^0,w,c
  6812  002E50  6ED9               	movwf	fsr2l,c
  6813  002E52  0E04               	movlw	high _inbuf
  6814  002E54  2032               	addwfc	(_head+1)^0,w,c
  6815  002E56  6EDA               	movwf	fsr2h,c
  6816  002E58  C001  FFDF         	movff	buf_push_inbuf@v,indf2
  6817  002E5C                     
  6818                           ;main.c: 94: }
  6819  002E5C  4A31               	infsnz	_head^0,f,c
  6820  002E5E  2A32               	incf	(_head+1)^0,f,c
  6821  002E60                     
  6822                           ;main.c: 95: 
  6823  002E60  0E02               	movlw	2
  6824  002E62  1832               	xorwf	(_head+1)^0,w,c
  6825  002E64  1031               	iorwf	_head^0,w,c
  6826  002E66  A4D8               	btfss	status,2,c
  6827  002E68  EF38  F017         	goto	i2u212_41
  6828  002E6C  EF3A  F017         	goto	i2u212_40
  6829  002E70                     i2u212_41:
  6830  002E70  EF3E  F017         	goto	i2l2735
  6831  002E74                     i2u212_40:
  6832  002E74  0E00               	movlw	0
  6833  002E76  6E32               	movwf	(_head+1)^0,c
  6834  002E78  0E00               	movlw	0
  6835  002E7A  6E31               	movwf	_head^0,c
  6836  002E7C                     i2l2735:
  6837                           
  6838                           ;main.c: 96: 
  6839  002E7C  0100               	movlb	0	; () banked
  6840  002E7E  51E3               	movf	_tail& (0+255),w,b
  6841  002E80  1831               	xorwf	_head^0,w,c
  6842  002E82  E107               	bnz	i2u213_41
  6843  002E84  51E4               	movf	(_tail+1)& (0+255),w,b
  6844  002E86  1832               	xorwf	(_head+1)^0,w,c
  6845  002E88  A4D8               	btfss	status,2,c
  6846  002E8A  EF49  F017         	goto	i2u213_41
  6847  002E8E  EF4B  F017         	goto	i2u213_40
  6848  002E92                     i2u213_41:
  6849  002E92  EF4E  F017         	goto	i2l2741
  6850  002E96                     i2u213_40:
  6851  002E96                     
  6852                           ; BSR set to: 0
  6853  002E96  0E00               	movlw	0
  6854  002E98  EF4F  F017         	goto	i2l155
  6855  002E9C                     i2l2741:
  6856                           
  6857                           ; BSR set to: 0
  6858                           ;main.c: 97: void init_int() {
  6859  002E9C  5001               	movf	buf_push_inbuf@v^0,w,c
  6860  002E9E                     i2l155:
  6861                           
  6862                           ; BSR set to: 0
  6863  002E9E  0012               	return		;funcret
  6864  002EA0                     __end_of_buf_push_inbuf:
  6865                           	callstack 0
  6866                           
  6867 ;; *************** function _buf_pop *****************
  6868 ;; Defined at:
  6869 ;;		line 102 in file "main.c"
  6870 ;; Parameters:    Size  Location     Type
  6871 ;;  buf             1    wreg     enum E4894
  6872 ;;  size            2    5[COMRAM] int 
  6873 ;; Auto vars:     Size  Location     Type
  6874 ;;  buf             1   12[COMRAM] enum E4894
  6875 ;;  v               2   10[COMRAM] unsigned short 
  6876 ;; Return value:  Size  Location     Type
  6877 ;;                  2    5[COMRAM] unsigned short 
  6878 ;; Registers used:
  6879 ;;		wreg, fsr1l, fsr1h, fsr2l, fsr2h, status,2, status,0, prodl, prodh, cstack
  6880 ;; Tracked objects:
  6881 ;;		On entry : 0/0
  6882 ;;		On exit  : 0/0
  6883 ;;		Unchanged: 0/0
  6884 ;; Data sizes:     COMRAM   BANK0   BANK1   BANK2   BANK3   BANK4   BANK5   BANK6   BANK7   BANK8   BANK9  BANK10  BANK1
      +1  BANK12  BANK13  BANK14  BANK15
  6885 ;;      Params:         0       0       0       0       0       0       0       0       0       0       0       0       
      +0       0       0       0       0
  6886 ;;      Locals:         0       0       0       0       0       0       0       0       0       0       0       0       
      +0       0       0       0       0
  6887 ;;      Temps:          0       0       0       0       0       0       0       0       0       0       0       0       
      +0       0       0       0       0
  6888 ;;      Totals:         0       0       0       0       0       0       0       0       0       0       0       0       
      +0       0       0       0       0
  6889 ;;Total ram usage:        0 bytes
  6890 ;; Hardware stack levels used:    1
  6891 ;; Hardware stack levels required when called:    4
  6892 ;; This function calls:
  6893 ;;		_buf_isempty
  6894 ;; This function is called by:
  6895 ;;		_highPriorityISR
  6896 ;;		_handle_exit
  6897 ;;		_handle_end
  6898 ;;		_packet_task
  6899 ;; This function uses a non-reentrant model
  6900 ;;
  6901                           
  6902                           	psect	text38
  6903  0021F0                     __ptext38:
  6904                           	callstack 0
  6905  0021F0                     _buf_pop:
  6906                           	callstack 12
  6907                           
  6908                           ; BSR set to: 0
  6909                           ;incstack = 0
  6910                           ;buf_pop@buf stored from wreg
  6911  0021F0  6E0D               	movwf	buf_pop@buf^0,c
  6912  0021F2                     
  6913                           ;main.c: 103:  TXSTA1 = 0x00;;main.c: 104: 
  6914  0021F2  500D               	movf	buf_pop@buf^0,w,c
  6915  0021F4  ECE8  F017         	call	_buf_isempty
  6916  0021F8  0900               	iorlw	0
  6917  0021FA  B4D8               	btfsc	status,2,c
  6918  0021FC  EF02  F011         	goto	i2u347_41
  6919  002200  EF04  F011         	goto	i2u347_40
  6920  002204                     i2u347_41:
  6921  002204  EF0A  F011         	goto	i2l3709
  6922  002208                     i2u347_40:
  6923  002208                     
  6924                           ;main.c: 105:  RCSTA1 = 0x90;
  6925  002208  0E00               	movlw	0
  6926  00220A  6E07               	movwf	(?_buf_pop+1)^0,c
  6927  00220C  0E00               	movlw	0
  6928  00220E  6E06               	movwf	?_buf_pop^0,c
  6929  002210  EF95  F011         	goto	i2l159
  6930  002214                     i2l3709:
  6931                           
  6932                           ;main.c: 107:     BAUDCON1bits.BRG16 = 1;
  6933  002214  500D               	movf	buf_pop@buf^0,w,c
  6934  002216  A4D8               	btfss	status,2,c
  6935  002218  EF10  F011         	goto	i2u348_41
  6936  00221C  EF12  F011         	goto	i2u348_40
  6937  002220                     i2u348_41:
  6938  002220  EF2B  F011         	goto	i2l3713
  6939  002224                     i2u348_40:
  6940  002224  500D               	movf	buf_pop@buf^0,w,c
  6941  002226  0D02               	mullw	2
  6942  002228  0EE3               	movlw	low _tail
  6943  00222A  24F3               	addwf	243,w,c
  6944  00222C  6ED9               	movwf	fsr2l,c
  6945  00222E  0E00               	movlw	high _tail
  6946  002230  20F4               	addwfc	prodh,w,c
  6947  002232  6EDA               	movwf	fsr2h,c
  6948  002234  CFDE F008          	movff	postinc2,??_buf_pop
  6949  002238  CFDD F009          	movff	postdec2,??_buf_pop+1
  6950  00223C  0EE6               	movlw	low _inbuf
  6951  00223E  2408               	addwf	??_buf_pop^0,w,c
  6952  002240  6ED9               	movwf	fsr2l,c
  6953  002242  0E04               	movlw	high _inbuf
  6954  002244  2009               	addwfc	(??_buf_pop+1)^0,w,c
  6955  002246  6EDA               	movwf	fsr2h,c
  6956  002248  50DF               	movf	indf2,w,c
  6957  00224A  6E0A               	movwf	(??_buf_pop+2)^0,c
  6958  00224C  500A               	movf	(??_buf_pop+2)^0,w,c
  6959  00224E  6E0B               	movwf	buf_pop@v^0,c
  6960  002250  6A0C               	clrf	(buf_pop@v+1)^0,c
  6961  002252  EF66  F011         	goto	i2l162
  6962  002256                     i2l3713:
  6963  002256  0E02               	movlw	2
  6964  002258  180D               	xorwf	buf_pop@buf^0,w,c
  6965  00225A  A4D8               	btfss	status,2,c
  6966  00225C  EF32  F011         	goto	i2u349_41
  6967  002260  EF34  F011         	goto	i2u349_40
  6968  002264                     i2u349_41:
  6969  002264  EF4F  F011         	goto	i2l3717
  6970  002268                     i2u349_40:
  6971  002268  500D               	movf	buf_pop@buf^0,w,c
  6972  00226A  0D02               	mullw	2
  6973  00226C  0EE3               	movlw	low _tail
  6974  00226E  24F3               	addwf	243,w,c
  6975  002270  6ED9               	movwf	fsr2l,c
  6976  002272  0E00               	movlw	high _tail
  6977  002274  20F4               	addwfc	prodh,w,c
  6978  002276  6EDA               	movwf	fsr2h,c
  6979  002278  CFDE F008          	movff	postinc2,??_buf_pop
  6980  00227C  CFDD F009          	movff	postdec2,??_buf_pop+1
  6981  002280  90D8               	bcf	status,0,c
  6982  002282  3608               	rlcf	??_buf_pop^0,f,c
  6983  002284  3609               	rlcf	(??_buf_pop+1)^0,f,c
  6984  002286  0E00               	movlw	low _queue
  6985  002288  2408               	addwf	??_buf_pop^0,w,c
  6986  00228A  6ED9               	movwf	fsr2l,c
  6987  00228C  0E01               	movlw	high _queue
  6988  00228E  2009               	addwfc	(??_buf_pop+1)^0,w,c
  6989  002290  6EDA               	movwf	fsr2h,c
  6990  002292  CFDE F00B          	movff	postinc2,buf_pop@v
  6991  002296  CFDD F00C          	movff	postdec2,buf_pop@v+1
  6992  00229A  EF66  F011         	goto	i2l162
  6993  00229E                     i2l3717:
  6994  00229E  500D               	movf	buf_pop@buf^0,w,c
  6995  0022A0  0D02               	mullw	2
  6996  0022A2  0EE3               	movlw	low _tail
  6997  0022A4  24F3               	addwf	243,w,c
  6998  0022A6  6ED9               	movwf	fsr2l,c
  6999  0022A8  0E00               	movlw	high _tail
  7000  0022AA  20F4               	addwfc	prodh,w,c
  7001  0022AC  6EDA               	movwf	fsr2h,c
  7002  0022AE  CFDE F008          	movff	postinc2,??_buf_pop
  7003  0022B2  CFDD F009          	movff	postdec2,??_buf_pop+1
  7004  0022B6  0EE6               	movlw	low _outbuf
  7005  0022B8  2408               	addwf	??_buf_pop^0,w,c
  7006  0022BA  6ED9               	movwf	fsr2l,c
  7007  0022BC  0E02               	movlw	high _outbuf
  7008  0022BE  2009               	addwfc	(??_buf_pop+1)^0,w,c
  7009  0022C0  6EDA               	movwf	fsr2h,c
  7010  0022C2  50DF               	movf	indf2,w,c
  7011  0022C4  6E0A               	movwf	(??_buf_pop+2)^0,c
  7012  0022C6  500A               	movf	(??_buf_pop+2)^0,w,c
  7013  0022C8  6E0B               	movwf	buf_pop@v^0,c
  7014  0022CA  6A0C               	clrf	(buf_pop@v+1)^0,c
  7015  0022CC                     i2l162:
  7016                           
  7017                           ;main.c: 110: 
  7018  0022CC  500D               	movf	buf_pop@buf^0,w,c
  7019  0022CE  0D02               	mullw	2
  7020  0022D0  0EE3               	movlw	low _tail
  7021  0022D2  24F3               	addwf	243,w,c
  7022  0022D4  6ED9               	movwf	fsr2l,c
  7023  0022D6  0E00               	movlw	high _tail
  7024  0022D8  20F4               	addwfc	prodh,w,c
  7025  0022DA  6EDA               	movwf	fsr2h,c
  7026  0022DC  2ADE               	incf	postinc2,f,c
  7027  0022DE  0E00               	movlw	0
  7028  0022E0  22DD               	addwfc	postdec2,f,c
  7029                           
  7030                           ;main.c: 111: 
  7031  0022E2  500D               	movf	buf_pop@buf^0,w,c
  7032  0022E4  0D02               	mullw	2
  7033  0022E6  0EE3               	movlw	low _tail
  7034  0022E8  24F3               	addwf	243,w,c
  7035  0022EA  6ED9               	movwf	fsr2l,c
  7036  0022EC  0E00               	movlw	high _tail
  7037  0022EE  20F4               	addwfc	prodh,w,c
  7038  0022F0  6EDA               	movwf	fsr2h,c
  7039  0022F2  5006               	movf	buf_pop@size^0,w,c
  7040  0022F4  18DE               	xorwf	postinc2,w,c
  7041  0022F6  E107               	bnz	i2u350_41
  7042  0022F8  5007               	movf	(buf_pop@size+1)^0,w,c
  7043  0022FA  18DE               	xorwf	postinc2,w,c
  7044  0022FC  A4D8               	btfss	status,2,c
  7045  0022FE  EF83  F011         	goto	i2u350_41
  7046  002302  EF85  F011         	goto	i2u350_40
  7047  002306                     i2u350_41:
  7048  002306  EF91  F011         	goto	i2l3721
  7049  00230A                     i2u350_40:
  7050  00230A  500D               	movf	buf_pop@buf^0,w,c
  7051  00230C  0D02               	mullw	2
  7052  00230E  0EE3               	movlw	low _tail
  7053  002310  24F3               	addwf	243,w,c
  7054  002312  6ED9               	movwf	fsr2l,c
  7055  002314  0E00               	movlw	high _tail
  7056  002316  20F4               	addwfc	prodh,w,c
  7057  002318  6EDA               	movwf	fsr2h,c
  7058  00231A  0E00               	movlw	0
  7059  00231C  6EDE               	movwf	postinc2,c
  7060  00231E  0E00               	movlw	0
  7061  002320  6EDD               	movwf	postdec2,c
  7062  002322                     i2l3721:
  7063                           
  7064                           ;main.c: 112:     INTCON = 0;
  7065  002322  C00B  F006         	movff	buf_pop@v,?_buf_pop
  7066  002326  C00C  F007         	movff	buf_pop@v+1,?_buf_pop+1
  7067  00232A                     i2l159:
  7068  00232A  0012               	return		;funcret
  7069  00232C                     __end_of_buf_pop:
  7070                           	callstack 0
  7071                           
  7072 ;; *************** function _buf_isempty *****************
  7073 ;; Defined at:
  7074 ;;		line 81 in file "main.c"
  7075 ;; Parameters:    Size  Location     Type
  7076 ;;  buf             1    wreg     enum E4894
  7077 ;; Auto vars:     Size  Location     Type
  7078 ;;  buf             1    4[COMRAM] enum E4894
  7079 ;; Return value:  Size  Location     Type
  7080 ;;                  1    wreg      unsigned char 
  7081 ;; Registers used:
  7082 ;;		wreg, fsr1l, fsr1h, fsr2l, fsr2h, status,2, status,0, prodl, prodh
  7083 ;; Tracked objects:
  7084 ;;		On entry : 0/0
  7085 ;;		On exit  : 0/0
  7086 ;;		Unchanged: 0/0
  7087 ;; Data sizes:     COMRAM   BANK0   BANK1   BANK2   BANK3   BANK4   BANK5   BANK6   BANK7   BANK8   BANK9  BANK10  BANK1
      +1  BANK12  BANK13  BANK14  BANK15
  7088 ;;      Params:         0       0       0       0       0       0       0       0       0       0       0       0       
      +0       0       0       0       0
  7089 ;;      Locals:         0       0       0       0       0       0       0       0       0       0       0       0       
      +0       0       0       0       0
  7090 ;;      Temps:          0       0       0       0       0       0       0       0       0       0       0       0       
      +0       0       0       0       0
  7091 ;;      Totals:         0       0       0       0       0       0       0       0       0       0       0       0       
      +0       0       0       0       0
  7092 ;;Total ram usage:        0 bytes
  7093 ;; Hardware stack levels used:    1
  7094 ;; Hardware stack levels required when called:    3
  7095 ;; This function calls:
  7096 ;;		Nothing
  7097 ;; This function is called by:
  7098 ;;		_buf_pop
  7099 ;;		_handle_exit
  7100 ;;		_handle_end
  7101 ;;		_packet_task
  7102 ;;		_main
  7103 ;; This function uses a non-reentrant model
  7104 ;;
  7105                           
  7106                           	psect	text39
  7107  002FD0                     __ptext39:
  7108                           	callstack 0
  7109  002FD0                     _buf_isempty:
  7110                           	callstack 12
  7111                           
  7112                           ;incstack = 0
  7113                           ;buf_isempty@buf stored from wreg
  7114  002FD0  6E05               	movwf	buf_isempty@buf^0,c
  7115  002FD2  5005               	movf	buf_isempty@buf^0,w,c
  7116  002FD4  0D02               	mullw	2
  7117  002FD6  0EE3               	movlw	low _tail
  7118  002FD8  24F3               	addwf	243,w,c
  7119  002FDA  6ED9               	movwf	fsr2l,c
  7120  002FDC  0E00               	movlw	high _tail
  7121  002FDE  20F4               	addwfc	prodh,w,c
  7122  002FE0  6EDA               	movwf	fsr2h,c
  7123  002FE2  5005               	movf	buf_isempty@buf^0,w,c
  7124  002FE4  0D02               	mullw	2
  7125  002FE6  0E31               	movlw	low _head
  7126  002FE8  24F3               	addwf	243,w,c
  7127  002FEA  6EE1               	movwf	fsr1l,c
  7128  002FEC  0E00               	movlw	high _head
  7129  002FEE  20F4               	addwfc	prodh,w,c
  7130  002FF0  6EE2               	movwf	fsr1h,c
  7131  002FF2  50DE               	movf	postinc2,w,c
  7132  002FF4  18E6               	xorwf	postinc1,w,c
  7133  002FF6  E10A               	bnz	i2u337_40
  7134  002FF8  50DE               	movf	postinc2,w,c
  7135  002FFA  18E6               	xorwf	postinc1,w,c
  7136  002FFC  B4D8               	btfsc	status,2,c
  7137  002FFE  EF03  F018         	goto	i2u337_41
  7138  003002  EF06  F018         	goto	i2u337_40
  7139  003006                     i2u337_41:
  7140  003006  0E01               	movlw	1
  7141  003008  EF07  F018         	goto	i2u338_40
  7142  00300C                     i2u337_40:
  7143  00300C  0E00               	movlw	0
  7144  00300E                     i2u338_40:
  7145  00300E  0012               	return		;funcret
  7146  003010                     __end_of_buf_isempty:
  7147                           	callstack 0
  7148                           
  7149 ;; *************** function ___lwmod *****************
  7150 ;; Defined at:
  7151 ;;		line 7 in file "/Applications/microchip/xc8/v2.30/pic/sources/c99/common/lwmod.c"
  7152 ;; Parameters:    Size  Location     Type
  7153 ;;  dividend        2    7[COMRAM] unsigned int 
  7154 ;;  divisor         2    9[COMRAM] unsigned int 
  7155 ;; Auto vars:     Size  Location     Type
  7156 ;;  counter         1   11[COMRAM] unsigned char 
  7157 ;; Return value:  Size  Location     Type
  7158 ;;                  2    7[COMRAM] unsigned int 
  7159 ;; Registers used:
  7160 ;;		wreg, status,2, status,0
  7161 ;; Tracked objects:
  7162 ;;		On entry : 0/0
  7163 ;;		On exit  : 0/0
  7164 ;;		Unchanged: 0/0
  7165 ;; Data sizes:     COMRAM   BANK0   BANK1   BANK2   BANK3   BANK4   BANK5   BANK6   BANK7   BANK8   BANK9  BANK10  BANK1
      +1  BANK12  BANK13  BANK14  BANK15
  7166 ;;      Params:         4       0       0       0       0       0       0       0       0       0       0       0       
      +0       0       0       0       0
  7167 ;;      Locals:         1       0       0       0       0       0       0       0       0       0       0       0       
      +0       0       0       0       0
  7168 ;;      Temps:          0       0       0       0       0       0       0       0       0       0       0       0       
      +0       0       0       0       0
  7169 ;;      Totals:         5       0       0       0       0       0       0       0       0       0       0       0       
      +0       0       0       0       0
  7170 ;;Total ram usage:        5 bytes
  7171 ;; Hardware stack levels used:    1
  7172 ;; This function calls:
  7173 ;;		Nothing
  7174 ;; This function is called by:
  7175 ;;		_highPriorityISR
  7176 ;; This function uses a non-reentrant model
  7177 ;;
  7178                           
  7179                           	psect	text40
  7180  002DE6                     __ptext40:
  7181                           	callstack 0
  7182  002DE6                     ___lwmod:
  7183                           	callstack 16
  7184  002DE6  500A               	movf	___lwmod@divisor^0,w,c
  7185  002DE8  100B               	iorwf	(___lwmod@divisor+1)^0,w,c
  7186  002DEA  B4D8               	btfsc	status,2,c
  7187  002DEC  EFFA  F016         	goto	i2u244_41
  7188  002DF0  EFFC  F016         	goto	i2u244_40
  7189  002DF4                     i2u244_41:
  7190  002DF4  EF20  F017         	goto	i2l820
  7191  002DF8                     i2u244_40:
  7192  002DF8  0E01               	movlw	1
  7193  002DFA  6E0C               	movwf	___lwmod@counter^0,c
  7194  002DFC  EF04  F017         	goto	i2l2933
  7195  002E00                     i2l2931:
  7196  002E00  90D8               	bcf	status,0,c
  7197  002E02  360A               	rlcf	___lwmod@divisor^0,f,c
  7198  002E04  360B               	rlcf	(___lwmod@divisor+1)^0,f,c
  7199  002E06  2A0C               	incf	___lwmod@counter^0,f,c
  7200  002E08                     i2l2933:
  7201  002E08  AE0B               	btfss	(___lwmod@divisor+1)^0,7,c
  7202  002E0A  EF09  F017         	goto	i2u245_41
  7203  002E0E  EF0B  F017         	goto	i2u245_40
  7204  002E12                     i2u245_41:
  7205  002E12  EF00  F017         	goto	i2l2931
  7206  002E16                     i2u245_40:
  7207  002E16                     i2l2935:
  7208  002E16  500A               	movf	___lwmod@divisor^0,w,c
  7209  002E18  5C08               	subwf	___lwmod@dividend^0,w,c
  7210  002E1A  500B               	movf	(___lwmod@divisor+1)^0,w,c
  7211  002E1C  5809               	subwfb	(___lwmod@dividend+1)^0,w,c
  7212  002E1E  A0D8               	btfss	status,0,c
  7213  002E20  EF14  F017         	goto	i2u246_41
  7214  002E24  EF16  F017         	goto	i2u246_40
  7215  002E28                     i2u246_41:
  7216  002E28  EF1A  F017         	goto	i2l2939
  7217  002E2C                     i2u246_40:
  7218  002E2C  500A               	movf	___lwmod@divisor^0,w,c
  7219  002E2E  5E08               	subwf	___lwmod@dividend^0,f,c
  7220  002E30  500B               	movf	(___lwmod@divisor+1)^0,w,c
  7221  002E32  5A09               	subwfb	(___lwmod@dividend+1)^0,f,c
  7222  002E34                     i2l2939:
  7223  002E34  90D8               	bcf	status,0,c
  7224  002E36  320B               	rrcf	(___lwmod@divisor+1)^0,f,c
  7225  002E38  320A               	rrcf	___lwmod@divisor^0,f,c
  7226  002E3A  2E0C               	decfsz	___lwmod@counter^0,f,c
  7227  002E3C  EF0B  F017         	goto	i2l2935
  7228  002E40                     i2l820:
  7229  002E40  C008  F008         	movff	___lwmod@dividend,?___lwmod
  7230  002E44  C009  F009         	movff	___lwmod@dividend+1,?___lwmod+1
  7231  002E48  0012               	return		;funcret
  7232  002E4A                     __end_of___lwmod:
  7233                           	callstack 0
  7234                           
  7235 ;; *************** function ___lwdiv *****************
  7236 ;; Defined at:
  7237 ;;		line 7 in file "/Applications/microchip/xc8/v2.30/pic/sources/c99/common/lwdiv.c"
  7238 ;; Parameters:    Size  Location     Type
  7239 ;;  dividend        2    0[COMRAM] unsigned int 
  7240 ;;  divisor         2    2[COMRAM] unsigned int 
  7241 ;; Auto vars:     Size  Location     Type
  7242 ;;  quotient        2    4[COMRAM] unsigned int 
  7243 ;;  counter         1    6[COMRAM] unsigned char 
  7244 ;; Return value:  Size  Location     Type
  7245 ;;                  2    0[COMRAM] unsigned int 
  7246 ;; Registers used:
  7247 ;;		wreg, status,2, status,0
  7248 ;; Tracked objects:
  7249 ;;		On entry : 0/0
  7250 ;;		On exit  : 0/0
  7251 ;;		Unchanged: 0/0
  7252 ;; Data sizes:     COMRAM   BANK0   BANK1   BANK2   BANK3   BANK4   BANK5   BANK6   BANK7   BANK8   BANK9  BANK10  BANK1
      +1  BANK12  BANK13  BANK14  BANK15
  7253 ;;      Params:         4       0       0       0       0       0       0       0       0       0       0       0       
      +0       0       0       0       0
  7254 ;;      Locals:         3       0       0       0       0       0       0       0       0       0       0       0       
      +0       0       0       0       0
  7255 ;;      Temps:          0       0       0       0       0       0       0       0       0       0       0       0       
      +0       0       0       0       0
  7256 ;;      Totals:         7       0       0       0       0       0       0       0       0       0       0       0       
      +0       0       0       0       0
  7257 ;;Total ram usage:        7 bytes
  7258 ;; Hardware stack levels used:    1
  7259 ;; This function calls:
  7260 ;;		Nothing
  7261 ;; This function is called by:
  7262 ;;		_highPriorityISR
  7263 ;; This function uses a non-reentrant model
  7264 ;;
  7265                           
  7266                           	psect	text41
  7267  002BC4                     __ptext41:
  7268                           	callstack 0
  7269  002BC4                     ___lwdiv:
  7270                           	callstack 16
  7271  002BC4  0E00               	movlw	0
  7272  002BC6  6E06               	movwf	(___lwdiv@quotient+1)^0,c
  7273  002BC8  0E00               	movlw	0
  7274  002BCA  6E05               	movwf	___lwdiv@quotient^0,c
  7275  002BCC  5003               	movf	___lwdiv@divisor^0,w,c
  7276  002BCE  1004               	iorwf	(___lwdiv@divisor+1)^0,w,c
  7277  002BD0  B4D8               	btfsc	status,2,c
  7278  002BD2  EFED  F015         	goto	i2u241_41
  7279  002BD6  EFEF  F015         	goto	i2u241_40
  7280  002BDA                     i2u241_41:
  7281  002BDA  EF17  F016         	goto	i2l810
  7282  002BDE                     i2u241_40:
  7283  002BDE  0E01               	movlw	1
  7284  002BE0  6E07               	movwf	___lwdiv@counter^0,c
  7285  002BE2  EFF7  F015         	goto	i2l2913
  7286  002BE6                     i2l2911:
  7287  002BE6  90D8               	bcf	status,0,c
  7288  002BE8  3603               	rlcf	___lwdiv@divisor^0,f,c
  7289  002BEA  3604               	rlcf	(___lwdiv@divisor+1)^0,f,c
  7290  002BEC  2A07               	incf	___lwdiv@counter^0,f,c
  7291  002BEE                     i2l2913:
  7292  002BEE  AE04               	btfss	(___lwdiv@divisor+1)^0,7,c
  7293  002BF0  EFFC  F015         	goto	i2u242_41
  7294  002BF4  EFFE  F015         	goto	i2u242_40
  7295  002BF8                     i2u242_41:
  7296  002BF8  EFF3  F015         	goto	i2l2911
  7297  002BFC                     i2u242_40:
  7298  002BFC                     i2l2915:
  7299  002BFC  90D8               	bcf	status,0,c
  7300  002BFE  3605               	rlcf	___lwdiv@quotient^0,f,c
  7301  002C00  3606               	rlcf	(___lwdiv@quotient+1)^0,f,c
  7302  002C02  5003               	movf	___lwdiv@divisor^0,w,c
  7303  002C04  5C01               	subwf	___lwdiv@dividend^0,w,c
  7304  002C06  5004               	movf	(___lwdiv@divisor+1)^0,w,c
  7305  002C08  5802               	subwfb	(___lwdiv@dividend+1)^0,w,c
  7306  002C0A  A0D8               	btfss	status,0,c
  7307  002C0C  EF0A  F016         	goto	i2u243_41
  7308  002C10  EF0C  F016         	goto	i2u243_40
  7309  002C14                     i2u243_41:
  7310  002C14  EF11  F016         	goto	i2l2923
  7311  002C18                     i2u243_40:
  7312  002C18  5003               	movf	___lwdiv@divisor^0,w,c
  7313  002C1A  5E01               	subwf	___lwdiv@dividend^0,f,c
  7314  002C1C  5004               	movf	(___lwdiv@divisor+1)^0,w,c
  7315  002C1E  5A02               	subwfb	(___lwdiv@dividend+1)^0,f,c
  7316  002C20  8005               	bsf	___lwdiv@quotient^0,0,c
  7317  002C22                     i2l2923:
  7318  002C22  90D8               	bcf	status,0,c
  7319  002C24  3204               	rrcf	(___lwdiv@divisor+1)^0,f,c
  7320  002C26  3203               	rrcf	___lwdiv@divisor^0,f,c
  7321  002C28  2E07               	decfsz	___lwdiv@counter^0,f,c
  7322  002C2A  EFFE  F015         	goto	i2l2915
  7323  002C2E                     i2l810:
  7324  002C2E  C005  F001         	movff	___lwdiv@quotient,?___lwdiv
  7325  002C32  C006  F002         	movff	___lwdiv@quotient+1,?___lwdiv+1
  7326  002C36  0012               	return		;funcret
  7327  002C38                     __end_of___lwdiv:
  7328                           	callstack 0
  7329                           
  7330                           	psect	rparam
  7331  0000                     
  7332                           	psect	temp
  7333  000048                     btemp:
  7334                           	callstack 0
  7335  000048                     	ds	1
  7336  0000                     int$flags	set	btemp
  7337  0000                     wtemp8	set	btemp+1
  7338  0000                     ttemp5	set	btemp+1
  7339  0000                     ttemp6	set	btemp+4
  7340  0000                     ttemp7	set	btemp+8
  7341                           
  7342                           	psect	idloc
  7343                           
  7344                           ;Config register IDLOC0 @ 0x200000
  7345                           ;	unspecified, using default values
  7346  200000                     	org	2097152
  7347  200000  FF                 	db	255
  7348                           
  7349                           ;Config register IDLOC1 @ 0x200001
  7350                           ;	unspecified, using default values
  7351  200001                     	org	2097153
  7352  200001  FF                 	db	255
  7353                           
  7354                           ;Config register IDLOC2 @ 0x200002
  7355                           ;	unspecified, using default values
  7356  200002                     	org	2097154
  7357  200002  FF                 	db	255
  7358                           
  7359                           ;Config register IDLOC3 @ 0x200003
  7360                           ;	unspecified, using default values
  7361  200003                     	org	2097155
  7362  200003  FF                 	db	255
  7363                           
  7364                           ;Config register IDLOC4 @ 0x200004
  7365                           ;	unspecified, using default values
  7366  200004                     	org	2097156
  7367  200004  FF                 	db	255
  7368                           
  7369                           ;Config register IDLOC5 @ 0x200005
  7370                           ;	unspecified, using default values
  7371  200005                     	org	2097157
  7372  200005  FF                 	db	255
  7373                           
  7374                           ;Config register IDLOC6 @ 0x200006
  7375                           ;	unspecified, using default values
  7376  200006                     	org	2097158
  7377  200006  FF                 	db	255
  7378                           
  7379                           ;Config register IDLOC7 @ 0x200007
  7380                           ;	unspecified, using default values
  7381  200007                     	org	2097159
  7382  200007  FF                 	db	255
  7383                           
  7384                           	psect	config
  7385                           
  7386                           ; Padding undefined space
  7387  300000                     	org	3145728
  7388  300000  FF                 	db	255
  7389                           
  7390                           ;Config register CONFIG1H @ 0x300001
  7391                           ;	Oscillator Selection bits
  7392                           ;	OSC = HSPLL, HS oscillator, PLL enabled (Clock Frequency = 4 x FOSC1)
  7393                           ;	Fail-Safe Clock Monitor Enable bit
  7394                           ;	FCMEN = OFF, Fail-Safe Clock Monitor disabled
  7395                           ;	Internal/External Oscillator Switchover bit
  7396                           ;	IESO = OFF, Two-Speed Start-up disabled
  7397  300001                     	org	3145729
  7398  300001  06                 	db	6
  7399                           
  7400                           ;Config register CONFIG2L @ 0x300002
  7401                           ;	Power-up Timer Enable bit
  7402                           ;	PWRT = OFF, PWRT disabled
  7403                           ;	Brown-out Reset Enable bits
  7404                           ;	BOREN = OFF, Brown-out Reset disabled in hardware and software
  7405                           ;	Brown-out Voltage bits
  7406                           ;	BORV = 3, Minimum setting
  7407  300002                     	org	3145730
  7408  300002  19                 	db	25
  7409                           
  7410                           ;Config register CONFIG2H @ 0x300003
  7411                           ;	Watchdog Timer
  7412                           ;	WDT = OFF, WDT disabled (control is placed on the SWDTEN bit)
  7413                           ;	Watchdog Timer Postscale Select bits
  7414                           ;	WDTPS = 32768, 1:32768
  7415  300003                     	org	3145731
  7416  300003  1E                 	db	30
  7417                           
  7418                           ;Config register CONFIG3L @ 0x300004
  7419                           ;	Processor Data Memory Mode Select bits
  7420                           ;	MODE = MC, Microcontroller mode
  7421                           ;	Address Bus Width Select bits
  7422                           ;	ADDRBW = ADDR20BIT, 20-bit Address Bus
  7423                           ;	Data Bus Width Select bit
  7424                           ;	DATABW = DATA16BIT, 16-bit External Bus mode
  7425                           ;	External Bus Data Wait Enable bit
  7426                           ;	WAIT = OFF, Wait selections are unavailable for table reads and table writes
  7427  300004                     	org	3145732
  7428  300004  F3                 	db	243
  7429                           
  7430                           ;Config register CONFIG3H @ 0x300005
  7431                           ;	CCP2 MUX bit
  7432                           ;	CCP2MX = PORTC, ECCP2 input/output is multiplexed with RC1
  7433                           ;	ECCP MUX bit
  7434                           ;	ECCPMX = PORTE, ECCP1/3 (P1B/P1C/P3B/P3C) are multiplexed onto RE6, RE5, RE4 and RE3 r
      +                          espectively
  7435                           ;	Low-Power Timer1 Oscillator Enable bit
  7436                           ;	LPT1OSC = OFF, Timer1 configured for higher power operation
  7437                           ;	MCLR Pin Enable bit
  7438                           ;	MCLRE = ON, MCLR pin enabled; RG5 input pin disabled
  7439  300005                     	org	3145733
  7440  300005  83                 	db	131
  7441                           
  7442                           ;Config register CONFIG4L @ 0x300006
  7443                           ;	Stack Full/Underflow Reset Enable bit
  7444                           ;	STVREN = ON, Stack full/underflow will cause Reset
  7445                           ;	Single-Supply ICSP Enable bit
  7446                           ;	LVP = OFF, Single-Supply ICSP disabled
  7447                           ;	Boot Block Size Select bits
  7448                           ;	BBSIZ = BB2K, 1K word (2 Kbytes) Boot Block size
  7449                           ;	Extended Instruction Set Enable bit
  7450                           ;	XINST = OFF, Instruction set extension and Indexed Addressing mode disabled (Legacy mo
      +                          de)
  7451                           ;	Background Debugger Enable bit
  7452                           ;	DEBUG = ON, Background debugger enabled, RB6 and RB7 are dedicated to In-Circuit Debug
  7453  300006                     	org	3145734
  7454  300006  01                 	db	1
  7455                           
  7456                           ; Padding undefined space
  7457  300007                     	org	3145735
  7458  300007  FF                 	db	255
  7459                           
  7460                           ;Config register CONFIG5L @ 0x300008
  7461                           ;	Code Protection bit Block 0
  7462                           ;	CP0 = OFF, Block 0 (000800, 001000 or 002000-003FFFh) not code-protected
  7463                           ;	Code Protection bit Block 1
  7464                           ;	CP1 = OFF, Block 1 (004000-007FFFh) not code-protected
  7465                           ;	Code Protection bit Block 2
  7466                           ;	CP2 = OFF, Block 2 (008000-00BFFFh) not code-protected
  7467                           ;	Code Protection bit Block 3
  7468                           ;	CP3 = OFF, Block 3 (00C000-00FFFFh) not code-protected
  7469                           ;	Code Protection bit Block 4
  7470                           ;	CP4 = OFF, Block 4 (010000-013FFFh) not code-protected
  7471                           ;	Code Protection bit Block 5
  7472                           ;	CP5 = OFF, Block 5 (014000-017FFFh) not code-protected
  7473                           ;	Code Protection bit Block 6
  7474                           ;	CP6 = OFF, Block 6 (01BFFF-018000h) not code-protected
  7475                           ;	Code Protection bit Block 7
  7476                           ;	CP7 = OFF, Block 7 (01C000-01FFFFh) not code-protected
  7477  300008                     	org	3145736
  7478  300008  FF                 	db	255
  7479                           
  7480                           ;Config register CONFIG5H @ 0x300009
  7481                           ;	Boot Block Code Protection bit
  7482                           ;	CPB = OFF, Boot Block (000000-0007FFh) not code-protected
  7483                           ;	Data EEPROM Code Protection bit
  7484                           ;	CPD = OFF, Data EEPROM not code-protected
  7485  300009                     	org	3145737
  7486  300009  C0                 	db	192
  7487                           
  7488                           ;Config register CONFIG6L @ 0x30000A
  7489                           ;	Write Protection bit Block 0
  7490                           ;	WRT0 = OFF, Block 0 (000800, 001000 or 002000-003FFFh) not write-protected
  7491                           ;	Write Protection bit Block 1
  7492                           ;	WRT1 = OFF, Block 1 (004000-007FFFh) not write-protected
  7493                           ;	Write Protection bit Block 2
  7494                           ;	WRT2 = OFF, Block 2 (008000-00BFFFh) not write-protected
  7495                           ;	Write Protection bit Block 3
  7496                           ;	WRT3 = OFF, Block 3 (00C000-00FFFFh) not write-protected
  7497                           ;	Write Protection bit Block 4
  7498                           ;	WRT4 = OFF, Block 4 (010000-013FFFh) not write-protected
  7499                           ;	Write Protection bit Block 5
  7500                           ;	WRT5 = OFF, Block 5 (014000-017FFFh) not write-protected
  7501                           ;	Write Protection bit Block 6
  7502                           ;	WRT6 = OFF, Block 6 (01BFFF-018000h) not write-protected
  7503                           ;	Write Protection bit Block 7
  7504                           ;	WRT7 = OFF, Block 7 (01C000-01FFFFh) not write-protected
  7505  30000A                     	org	3145738
  7506  30000A  FF                 	db	255
  7507                           
  7508                           ;Config register CONFIG6H @ 0x30000B
  7509                           ;	Configuration Register Write Protection bit
  7510                           ;	WRTC = OFF, Configuration registers (300000-3000FFh) not write-protected
  7511                           ;	Boot Block Write Protection bit
  7512                           ;	WRTB = OFF, Boot Block (000000-007FFF, 000FFF or 001FFFh) not write-protected
  7513                           ;	Data EEPROM Write Protection bit
  7514                           ;	WRTD = OFF, Data EEPROM not write-protected
  7515  30000B                     	org	3145739
  7516  30000B  E0                 	db	224
  7517                           
  7518                           ;Config register CONFIG7L @ 0x30000C
  7519                           ;	Table Read Protection bit Block 0
  7520                           ;	EBTR0 = OFF, Block 0 (000800, 001000 or 002000-003FFFh) not protected from table reads
      +                           executed in other blocks
  7521                           ;	Table Read Protection bit Block 1
  7522                           ;	EBTR1 = OFF, Block 1 (004000-007FFFh) not protected from table reads executed in other
      +                           blocks
  7523                           ;	Table Read Protection bit Block 2
  7524                           ;	EBTR2 = OFF, Block 2 (008000-00BFFFh) not protected from table reads executed in other
      +                           blocks
  7525                           ;	Table Read Protection bit Block 3
  7526                           ;	EBTR3 = OFF, Block 3 (00C000-00FFFFh) not protected from table reads executed in other
      +                           blocks
  7527                           ;	Table Read Protection bit Block 4
  7528                           ;	EBTR4 = OFF, Block 4 (010000-013FFFh) not protected from table reads executed in other
      +                           blocks
  7529                           ;	Table Read Protection bit Block 5
  7530                           ;	EBTR5 = OFF, Block 5 (014000-017FFFh) not protected from table reads executed in other
      +                           blocks
  7531                           ;	Table Read Protection bit Block 6
  7532                           ;	EBTR6 = OFF, Block 6 (018000-01BFFFh) not protected from table reads executed in other
      +                           blocks
  7533                           ;	Table Read Protection bit Block 7
  7534                           ;	EBTR7 = OFF, Block 7 (01C000-01FFFFh) not protected from table reads executed in other
      +                           blocks
  7535  30000C                     	org	3145740
  7536  30000C  FF                 	db	255
  7537                           
  7538                           ;Config register CONFIG7H @ 0x30000D
  7539                           ;	Boot Block Table Read Protection bit
  7540                           ;	EBTRB = OFF, Boot Block (000000-007FFF, 000FFF or 001FFFh) not protected from table re
      +                          ads executed in other blocks
  7541  30000D                     	org	3145741
  7542  30000D  40                 	db	64
  7543                           tosu	equ	0xFFF
  7544                           tosh	equ	0xFFE
  7545                           tosl	equ	0xFFD
  7546                           stkptr	equ	0xFFC
  7547                           pclatu	equ	0xFFB
  7548                           pclath	equ	0xFFA
  7549                           pcl	equ	0xFF9
  7550                           tblptru	equ	0xFF8
  7551                           tblptrh	equ	0xFF7
  7552                           tblptrl	equ	0xFF6
  7553                           tablat	equ	0xFF5
  7554                           prodh	equ	0xFF4
  7555                           prodl	equ	0xFF3
  7556                           indf0	equ	0xFEF
  7557                           postinc0	equ	0xFEE
  7558                           postdec0	equ	0xFED
  7559                           preinc0	equ	0xFEC
  7560                           plusw0	equ	0xFEB
  7561                           fsr0h	equ	0xFEA
  7562                           fsr0l	equ	0xFE9
  7563                           wreg	equ	0xFE8
  7564                           indf1	equ	0xFE7
  7565                           postinc1	equ	0xFE6
  7566                           postdec1	equ	0xFE5
  7567                           preinc1	equ	0xFE4
  7568                           plusw1	equ	0xFE3
  7569                           fsr1h	equ	0xFE2
  7570                           fsr1l	equ	0xFE1
  7571                           bsr	equ	0xFE0
  7572                           indf2	equ	0xFDF
  7573                           postinc2	equ	0xFDE
  7574                           postdec2	equ	0xFDD
  7575                           preinc2	equ	0xFDC
  7576                           plusw2	equ	0xFDB
  7577                           fsr2h	equ	0xFDA
  7578                           fsr2l	equ	0xFD9
  7579                           status	equ	0xFD8

Data Sizes:
    Strings     54
    Constant    0
    Data        26
    BSS         1512
    Persistent  0
    Stack       0

Auto Spaces:
    Space          Size  Autos    Used
    COMRAM           94     48      71
    BANK0           160    131     160
    BANK1           256      0     254
    BANK2           256     22     230
    BANK3           256      0       0
    BANK4           256      0       0
    BANK5           256      0       0
    BANK6           256      0       0
    BANK7           256      0       0
    BANK8           256      0       0
    BANK9           256      0       0
    BANK10          256      0       0
    BANK11          256      0       0
    BANK12          256      0       0
    BANK13          256      0       0
    BANK14          256      0       0
    BANK15           96      0       0

Pointer List with Targets:

    strlen@s	PTR const unsigned char  size(2) Largest target is 32
		 -> dbuf(BANK1[32]), 

    strlen@a	PTR const unsigned char  size(2) Largest target is 32
		 -> dbuf(BANK1[32]), 

    fputs@s	PTR const unsigned char  size(2) Largest target is 32
		 -> dbuf(BANK1[32]), 

    fputs@fp	PTR struct _IO_FILE size(2) Largest target is 7
		 -> sprintf@f(BANK0[6]), 

    fputc@fp.buffer	PTR unsigned char  size(2) Largest target is 12
		 -> push_sub_rsp@response_buf(BANK0[11]), push_park_fee_rsp@response_buf(BANK0[12]), push_park_rsp@response_buf(BANK0[12]), push_emp_rsp@emp_response_buf(BANK0[8]), 

    fputc@fp	PTR struct _IO_FILE size(2) Largest target is 7
		 -> sprintf@f(BANK0[6]), 

    atoi@s	PTR const unsigned char  size(2) Largest target is 16
		 -> STR_4(CODE[14]), STR_3(CODE[14]), STR_2(CODE[16]), STR_1(CODE[10]), 

    vfprintf@ap	PTR PTR void  size(2) Largest target is 2
		 -> sprintf@ap(BANK0[2]), 

    vfprintf@fp	PTR struct _IO_FILE size(2) Largest target is 7
		 -> sprintf@f(BANK0[6]), 

    vfprintf@fmt	PTR const unsigned char  size(2) Largest target is 16
		 -> STR_4(CODE[14]), STR_3(CODE[14]), STR_2(CODE[16]), STR_1(CODE[10]), 

    vfprintf@cfmt	PTR unsigned char  size(2) Largest target is 16
		 -> STR_4(CODE[14]), STR_3(CODE[14]), STR_2(CODE[16]), STR_1(CODE[10]), 

    vfpfcnvrt@fp	PTR struct _IO_FILE size(2) Largest target is 7
		 -> sprintf@f(BANK0[6]), 

    vfpfcnvrt@ap	PTR PTR void  size(2) Largest target is 2
		 -> sprintf@ap(BANK0[2]), 

    vfpfcnvrt@fmt	PTR PTR unsigned char  size(2) Largest target is 2
		 -> vfprintf@cfmt(BANK0[2]), 

    utoa@fp	PTR struct _IO_FILE size(2) Largest target is 7
		 -> sprintf@f(BANK0[6]), 

    ctoa@fp	PTR struct _IO_FILE size(2) Largest target is 7
		 -> sprintf@f(BANK0[6]), 

    pad@fp	PTR struct _IO_FILE size(2) Largest target is 7
		 -> sprintf@f(BANK0[6]), 

    pad@buf	PTR unsigned char  size(2) Largest target is 32
		 -> dbuf(BANK1[32]), 

    sprintf@fmt	PTR const unsigned char  size(2) Largest target is 16
		 -> STR_4(CODE[14]), STR_3(CODE[14]), STR_2(CODE[16]), STR_1(CODE[10]), 

    sprintf@s	PTR unsigned char  size(2) Largest target is 12
		 -> push_sub_rsp@response_buf(BANK0[11]), push_park_fee_rsp@response_buf(BANK0[12]), push_park_rsp@response_buf(BANK0[12]), push_emp_rsp@emp_response_buf(BANK0[8]), 

    sprintf@ap	PTR void [1] size(2) Largest target is 2
		 -> ?_sprintf(BANK0[2]), 

    S1164_IO_FILE$buffer	PTR unsigned char  size(2) Largest target is 12
		 -> push_sub_rsp@response_buf(BANK0[11]), push_park_fee_rsp@response_buf(BANK0[12]), push_park_rsp@response_buf(BANK0[12]), push_emp_rsp@emp_response_buf(BANK0[8]), 

    f.buffer	PTR unsigned char  size(2) Largest target is 12
		 -> push_sub_rsp@response_buf(BANK0[11]), push_park_fee_rsp@response_buf(BANK0[12]), push_park_rsp@response_buf(BANK0[12]), push_emp_rsp@emp_response_buf(BANK0[8]), 


Critical Paths under _main in COMRAM

    _utoa->___lodiv
    _pad->_fputs
    _fputs->_fputc
    _ctoa->_fputc
    _atoi->_isspace

Critical Paths under _highPriorityISR in COMRAM

    ___lwmod->___lwdiv

Critical Paths under _main in BANK0

    _main->_parse_sim_messages
    _push_emp_rsp->_sprintf
    _parse_sim_messages->_handle_exit
    _handle_subscr->_push_sub_rsp
    _push_sub_rsp->_sprintf
    _handle_exit->_handle_park
    _push_park_fee_rsp->_sprintf
    _handle_park->_try_park
    _try_park->_push_park_rsp
    _push_park_rsp->_sprintf
    _sprintf->_vfprintf
    _vfprintf->_vfpfcnvrt
    _vfpfcnvrt->_utoa
    _utoa->_pad

Critical Paths under _highPriorityISR in BANK0

    None.

Critical Paths under _main in BANK1

    None.

Critical Paths under _highPriorityISR in BANK1

    None.

Critical Paths under _main in BANK2

    _main->_parse_sim_messages
    _parse_sim_messages->_handle_exit

Critical Paths under _highPriorityISR in BANK2

    None.

Critical Paths under _main in BANK3

    None.

Critical Paths under _highPriorityISR in BANK3

    None.

Critical Paths under _main in BANK4

    None.

Critical Paths under _highPriorityISR in BANK4

    None.

Critical Paths under _main in BANK5

    None.

Critical Paths under _highPriorityISR in BANK5

    None.

Critical Paths under _main in BANK6

    None.

Critical Paths under _highPriorityISR in BANK6

    None.

Critical Paths under _main in BANK7

    None.

Critical Paths under _highPriorityISR in BANK7

    None.

Critical Paths under _main in BANK8

    None.

Critical Paths under _highPriorityISR in BANK8

    None.

Critical Paths under _main in BANK9

    None.

Critical Paths under _highPriorityISR in BANK9

    None.

Critical Paths under _main in BANK10

    None.

Critical Paths under _highPriorityISR in BANK10

    None.

Critical Paths under _main in BANK11

    None.

Critical Paths under _highPriorityISR in BANK11

    None.

Critical Paths under _main in BANK12

    None.

Critical Paths under _highPriorityISR in BANK12

    None.

Critical Paths under _main in BANK13

    None.

Critical Paths under _highPriorityISR in BANK13

    None.

Critical Paths under _main in BANK14

    None.

Critical Paths under _highPriorityISR in BANK14

    None.

Critical Paths under _main in BANK15

    None.

Critical Paths under _highPriorityISR in BANK15

    None.

Call Graph Tables:

 ---------------------------------------------------------------------------------
 (Depth) Function   	        Calls       Base Space   Used Autos Params    Refs
 ---------------------------------------------------------------------------------
 (0) _main                                                11    11      0  102626
                                             11 BANK2     11    11      0
                        _buf_isempty
                           _init_adc
                           _init_int
                          _init_vars
                        _packet_task
                 _parse_sim_messages
                       _push_emp_rsp
 ---------------------------------------------------------------------------------
 (1) _push_emp_rsp                                         9     9      0   17110
                                             87 BANK0      9     9      0
                           _buf_push
                            _sprintf
 ---------------------------------------------------------------------------------
 (1) _parse_sim_messages                                   7     7      0   83840
                                            129 BANK0      2     2      0
                                              6 BANK2      5     5      0
                         _handle_end
                        _handle_exit
                          _handle_go
                        _handle_park
                      _handle_subscr
 ---------------------------------------------------------------------------------
 (2) _handle_subscr                                       12     6      6   19449
                                            104 BANK0     12     6      6
                             ___wmul
                       _push_sub_rsp
 ---------------------------------------------------------------------------------
 (3) _push_sub_rsp                                        17    13      4   17451
                                             87 BANK0     17    13      4
                           _buf_push
                            _sprintf
 ---------------------------------------------------------------------------------
 (2) _handle_go                                            0     0      0       0
 ---------------------------------------------------------------------------------
 (2) _handle_exit                                         14    12      2   41200
                                            121 BANK0      8     6      2
                                              0 BANK2      6     6      0
                        _buf_isempty
                            _buf_pop
                       _disable_rxtx
                        _enable_rxtx
                        _handle_park
                  _push_park_fee_rsp
 ---------------------------------------------------------------------------------
 (3) _push_park_fee_rsp                                   18    14      4   17451
                                             87 BANK0     18    14      4
                           _buf_push
                       _disable_rxtx
                        _enable_rxtx
                            _sprintf
 ---------------------------------------------------------------------------------
 (2) _handle_park                                          2     0      2   22184
                                            119 BANK0      2     0      2
                           _buf_push
                       _disable_rxtx
                        _enable_rxtx
                           _try_park
 ---------------------------------------------------------------------------------
 (3) _try_park                                            14    12      2   20158
                                            105 BANK0     14    12      2
                             ___wmul
                      _push_park_rsp
 ---------------------------------------------------------------------------------
 (4) _push_park_rsp                                       18    15      3   17662
                                             87 BANK0     18    15      3
                           _buf_push
                       _disable_rxtx
                        _enable_rxtx
                            _sprintf
 ---------------------------------------------------------------------------------
 (2) _sprintf                                             20    10     10   15249
                                             67 BANK0     20    10     10
                           _vfprintf
 ---------------------------------------------------------------------------------
 (3) _vfprintf                                             8     2      6   14211
                                             59 BANK0      8     2      6
                          _vfpfcnvrt
 ---------------------------------------------------------------------------------
 (4) _vfpfcnvrt                                           46    40      6   13675
                                             36 BANK0     23    17      6
                               _atoi
                               _ctoa
                              _fputc
                            _isdigit
                               _utoa
 ---------------------------------------------------------------------------------
 (5) _utoa                                                32    22     10    5909
                                              4 BANK0     32    22     10
                            ___lodiv
                            ___lomod
                                _pad
 ---------------------------------------------------------------------------------
 (6) _pad                                                 11     5      6    4497
                                             39 COMRAM     7     1      6
                                              0 BANK0      4     4      0
                              _fputc
                              _fputs
                             _strlen
 ---------------------------------------------------------------------------------
 (7) _strlen                                               4     2      2     220
                                             23 COMRAM     4     2      2
 ---------------------------------------------------------------------------------
 (7) _fputs                                                7     3      4    2077
                                             32 COMRAM     7     3      4
                              _fputc
 ---------------------------------------------------------------------------------
 (6) ___lomod                                             17     1     16     412
                                             23 COMRAM    17     1     16
 ---------------------------------------------------------------------------------
 (6) ___lodiv                                             25     9     16     421
                                             23 COMRAM    25     9     16
 ---------------------------------------------------------------------------------
 (5) _ctoa                                                 8     5      3    2051
                                             32 COMRAM     8     5      3
                              _fputc
 ---------------------------------------------------------------------------------
 (8) _fputc                                                9     5      4    1577
                                             23 COMRAM     9     5      4
                              _putch
 ---------------------------------------------------------------------------------
 (9) _putch                                                1     1      0       0
 ---------------------------------------------------------------------------------
 (5) _atoi                                                15    13      2    2515
                                             30 COMRAM    15    13      2
                             ___wmul
                            _isdigit
                            _isspace
 ---------------------------------------------------------------------------------
 (6) _isspace                                              7     5      2     259
                                             23 COMRAM     7     5      2
 ---------------------------------------------------------------------------------
 (5) _isdigit                                              6     4      2     281
                                             23 COMRAM     6     4      2
 ---------------------------------------------------------------------------------
 (6) ___wmul                                               6     2      4    1412
                                             23 COMRAM     6     2      4
 ---------------------------------------------------------------------------------
 (2) _buf_push                                             7     2      5    1784
                                             23 COMRAM     7     2      5
 ---------------------------------------------------------------------------------
 (2) _handle_end                                           0     0      0     834
                        _buf_isempty
                            _buf_pop
                       _disable_rxtx
                        _enable_rxtx
 ---------------------------------------------------------------------------------
 (1) _packet_task                                          0     0      0     834
                        _buf_isempty
                            _buf_pop
                       _disable_rxtx
                        _enable_rxtx
 ---------------------------------------------------------------------------------
 (5) _enable_rxtx                                          0     0      0       0
 ---------------------------------------------------------------------------------
 (5) _disable_rxtx                                         0     0      0       0
 ---------------------------------------------------------------------------------
 (15) _buf_pop                                             8     6      2     772
                        _buf_isempty
 ---------------------------------------------------------------------------------
 (16) _buf_isempty                                         5     5      0      62
 ---------------------------------------------------------------------------------
 (1) _init_vars                                            6     6      0     322
                                             23 COMRAM     6     6      0
 ---------------------------------------------------------------------------------
 (1) _init_int                                             1     1      0       3
                                             23 COMRAM     1     1      0
 ---------------------------------------------------------------------------------
 (1) _init_adc                                             0     0      0       0
 ---------------------------------------------------------------------------------
 Estimated maximum stack depth 16
 ---------------------------------------------------------------------------------
 (Depth) Function   	        Calls       Base Space   Used Autos Params    Refs
 ---------------------------------------------------------------------------------
 (14) _highPriorityISR                                    10    10      0    1632
                                             13 COMRAM    10    10      0
                            ___lwdiv
                            ___lwmod
                            _buf_pop
                     _buf_push_inbuf
                     _update_display
 ---------------------------------------------------------------------------------
 (15) _update_display                                      8     8      0      92
                                              0 COMRAM     8     8      0
 ---------------------------------------------------------------------------------
 (15) _buf_push_inbuf                                      1     1      0      44
                                              0 COMRAM     1     1      0
 ---------------------------------------------------------------------------------
 (15) _buf_pop                                             8     6      2     772
                        _buf_isempty
 ---------------------------------------------------------------------------------
 (16) _buf_isempty                                         5     5      0      62
 ---------------------------------------------------------------------------------
 (15) ___lwmod                                             5     1      4     311
                                              7 COMRAM     5     1      4
                            ___lwdiv (ARG)
 ---------------------------------------------------------------------------------
 (15) ___lwdiv                                             7     3      4     314
                                              0 COMRAM     7     3      4
 ---------------------------------------------------------------------------------
 Estimated maximum stack depth 16
 ---------------------------------------------------------------------------------

 Call Graph Graphs:

 _main (ROOT)
   _buf_isempty
   _init_adc
   _init_int
   _init_vars
   _packet_task
     _buf_isempty
     _buf_pop
       _buf_isempty
     _disable_rxtx
     _enable_rxtx
   _parse_sim_messages
     _handle_end
       _buf_isempty
       _buf_pop
         _buf_isempty
       _disable_rxtx
       _enable_rxtx
     _handle_exit
       _buf_isempty
       _buf_pop
         _buf_isempty
       _disable_rxtx
       _enable_rxtx
       _handle_park
         _buf_push
         _disable_rxtx
         _enable_rxtx
         _try_park
           ___wmul
           _push_park_rsp
             _buf_push
             _disable_rxtx
             _enable_rxtx
             _sprintf
               _vfprintf
                 _vfpfcnvrt
                   _atoi
                     ___wmul
                     _isdigit
                     _isspace
                   _ctoa
                     _fputc
                       _putch
                   _fputc
                     _putch
                   _isdigit
                   _utoa
                     ___lodiv
                     ___lomod
                     _pad
                       _fputc
                         _putch
                       _fputs
                         _fputc
                           _putch
                       _strlen
       _push_park_fee_rsp
         _buf_push
         _disable_rxtx
         _enable_rxtx
         _sprintf
           _vfprintf
             _vfpfcnvrt
               _atoi
                 ___wmul
                 _isdigit
                 _isspace
               _ctoa
                 _fputc
                   _putch
               _fputc
                 _putch
               _isdigit
               _utoa
                 ___lodiv
                 ___lomod
                 _pad
                   _fputc
                     _putch
                   _fputs
                     _fputc
                       _putch
                   _strlen
     _handle_go
     _handle_park
       _buf_push
       _disable_rxtx
       _enable_rxtx
       _try_park
         ___wmul
         _push_park_rsp
           _buf_push
           _disable_rxtx
           _enable_rxtx
           _sprintf
             _vfprintf
               _vfpfcnvrt
                 _atoi
                   ___wmul
                   _isdigit
                   _isspace
                 _ctoa
                   _fputc
                     _putch
                 _fputc
                   _putch
                 _isdigit
                 _utoa
                   ___lodiv
                   ___lomod
                   _pad
                     _fputc
                       _putch
                     _fputs
                       _fputc
                         _putch
                     _strlen
     _handle_subscr
       ___wmul
       _push_sub_rsp
         _buf_push
         _sprintf
           _vfprintf
             _vfpfcnvrt
               _atoi
                 ___wmul
                 _isdigit
                 _isspace
               _ctoa
                 _fputc
                   _putch
               _fputc
                 _putch
               _isdigit
               _utoa
                 ___lodiv
                 ___lomod
                 _pad
                   _fputc
                     _putch
                   _fputs
                     _fputc
                       _putch
                   _strlen
   _push_emp_rsp
     _buf_push
     _sprintf
       _vfprintf
         _vfpfcnvrt
           _atoi
             ___wmul
             _isdigit
             _isspace
           _ctoa
             _fputc
               _putch
           _fputc
             _putch
           _isdigit
           _utoa
             ___lodiv
             ___lomod
             _pad
               _fputc
                 _putch
               _fputs
                 _fputc
                   _putch
               _strlen

 _highPriorityISR (ROOT)
   ___lwdiv
   ___lwmod
     ___lwdiv (ARG)
   _buf_pop
     _buf_isempty
   _buf_push_inbuf
   _update_display

 Address spaces:
Name               Size   Autos  Total    Cost      Usage
BIGRAM             F5F      0     400      37       26.0%
EEDATA             400      0       0       0        0.0%
BITBANK14          100      0       0      33        0.0%
BANK14             100      0       0      34        0.0%
BITBANK13          100      0       0      30        0.0%
BANK13             100      0       0      31        0.0%
BITBANK12          100      0       0      28        0.0%
BANK12             100      0       0      29        0.0%
BITBANK11          100      0       0      26        0.0%
BANK11             100      0       0      27        0.0%
BITBANK10          100      0       0      24        0.0%
BANK10             100      0       0      25        0.0%
BITBANK9           100      0       0      22        0.0%
BANK9              100      0       0      23        0.0%
BITBANK8           100      0       0      20        0.0%
BANK8              100      0       0      21        0.0%
BITBANK7           100      0       0      18        0.0%
BANK7              100      0       0      19        0.0%
BITBANK6           100      0       0      16        0.0%
BANK6              100      0       0      17        0.0%
BITBANK5           100      0       0      14        0.0%
BANK5              100      0       0      15        0.0%
BITBANK4           100      0       0      12        0.0%
BANK4              100      0       0      13        0.0%
BITBANK3           100      0       0      10        0.0%
BANK3              100      0       0      11        0.0%
BITBANK2           100      0       0       8        0.0%
BANK2              100     16      E6       9       89.8%
BITBANK1           100      0       0       6        0.0%
BANK1              100      0      FE       7       99.2%
BITBANK0            A0      0       0       4        0.0%
BANK0               A0     83      A0       5      100.0%
BITBANK15           60      0       0      35        0.0%
BANK15              60      0       0      36        0.0%
BITCOMRAM           5E      0       0       0        0.0%
COMRAM              5E     30      47       1       75.5%
BITSFR               0      0       0     200        0.0%
SFR                  0      0       0     200        0.0%
STACK                0      0       0       2        0.0%
NULL                 0      0       0       0        0.0%
ABS                  0      0     2CB      32        0.0%
DATA                 0      0     6CB       3        0.0%
CODE                 0      0       0       0        0.0%


Microchip Technology PIC18 Macro Assembler V2.30 build 20200825195618 
Symbol Table                                                                                   Tue May 27 09:46:19 2025

               ??_disable_rxtx 0018                              _c 0043                              _v 0044  
        __size_of_push_sub_rsp 0068         parse_sim_messages@spot 02D6                ?_buf_push_inbuf 0001  
          ___wmul@multiplicand 001A                 _update_display 2B42                  _emp_res_count 00EF  
      parse_sim_messages@level 02D8                            l201 3086                            l211 2A2C  
                          l204 316C                            l221 2CA8                            l150 253A  
                          l135 31AA                            l216 2B40                            l145 24E0  
                          l305 1C44                            l138 31A4                            l226 2D7E  
                          l243 304C                            l251 1DE6                            l171 2D16  
                          l236 18CE                            l260 3184                            l253 1EAC  
                          l309 1CB6                            l263 30E0                            l319 3152  
                          l271 144E                            l272 1678                            l257 2432  
                          l266 30F6                            l287 2F8A                            l764 262A  
                          l757 260A                            l774 27CE                            l767 27AE  
                          l997 2EF0                    buf_pop@size 0006                            _pad 27D0  
                          prod 000FF3                            wreg 000FE8       parse_sim_messages@car_id 02D9  
                   _TXSTA1bits 000FAC                    buf_push@buf 001A                    _total_money 003D  
                 _push_emp_rsp 2CAA                           l1031 2898                           l1042 2690  
                         l1026 2816                           l1131 30BE                           l1052 1908  
                         l1125 2048                           l1045 26D2                           l1029 285C  
                         l1062 1AD6                           l1054 1910                           l1047 26FE  
                         l1128 2050                           l1154 2962                           l1162 2FCE  
                         l1139 2F42                           l1171 312C                           l1076 1132  
                         l1165 31AC                           l1096 2DDC                           l3201 273A  
                         l1089 1414                           l1097 2DE4                           l3203 2748  
                         l3211 27D0                           l3141 28C8                           l3205 2776  
                         l3221 2824                           l3213 27DE                           l3301 1A4E  
                         l3143 28E6                           l3135 289A                           l3207 2796  
                         l3151 2F98                           l3223 2838                           l3215 27F2  
                         l3303 1A6C                           l3233 3088                           l3241 2F0A  
                         l4041 1F76                           l3321 1EEA                           l3313 1EAE  
                         l3145 291C                           l3137 28AC                           l3209 27A8  
                         l3153 2FAA                           l3161 3108                           l3225 283E  
                         l3217 2800                           l3305 1A86                           l3401 11AE  
                         l3243 2F38                           l3331 1F44                           l3323 1F24  
                         l3315 1EC2                           l3139 28BE                           l3251 263E  
                         l3155 2FAE                           l3163 3120                           l3227 286A  
                         l3219 280C                           l3307 1AA0                           l3411 1236  
                         l3403 11BC                           l3245 2F3C                           l3237 2EF2  
                         l3341 1FC6                           l3333 1F4C                           l3325 1F28  
                         l3317 1EC6                           l3253 264A                           l3181 2582  
                         l3173 253C                           l3149 2F8C                           l3157 30F8  
                         l3229 287E                           l3309 1AAE                           l3421 12BE  
                         l3405 11DC                           l3413 1248                           l3501 2AC0  
                         l3167 312E                           l3239 2EF6                           l3335 1F54  
                         l3319 1ECA                           l3271 26E0                           l3263 2688  
                         l3255 2656                           l3191 25F2                           l3183 2590  
                         l3175 2548                           l3159 3104                           l3431 1390  
                         l3423 12E6                           l3415 1270                           l3407 11EA  
                         l4039 10F2                           l3511 2B00                           l3503 2AF6  
                         l3169 314A                           l3345 2008                           l3337 1F8C  
                         l3329 1F2E                           l3273 26F2                           l3265 269C  
                         l3257 2664                           l3249 262C                           l3193 2604  
                         l3185 25A2                           l3177 2566                           l3281 18E0  
                         l3441 13CE                           l3433 139E                           l3425 1330  
                         l3417 12A2                           l3361 107E                           l3513 2B28  
                         l3521 168A                           l3601 2D3E                           l3347 201A  
                         l3267 26B0                           l3259 2676                           l3187 25D0  
                         l3179 256E                           l3195 2700                           l3291 1952  
                         l3283 18FA                           l3435 13B2                           l3363 1082  
                         l3355 1038                           l3515 2B2C                           l3611 2D6E  
                         l3349 202C                           l3269 26B4                           l3189 25F0  
                         l3197 271E                           l3293 19CA                           l3285 1938  
                         l3277 18D0                           l3429 1368                           l3381 10B6  
                         l3373 10AA                           l3365 1090                           l3357 1060  
                         l3445 13DA                           l3461 2D80                           l3517 2B30  
                         l3509 2AFC                           l3541 1752                           l3533 1694  
                         l3613 3010                           l3471 31A0                           l3199 2726  
                         l3295 19D0                           l3287 1942                           l3279 18DE  
                         l3447 1402                           l3439 13C0                           l3367 1092  
                         l3391 1120                           l3359 106E                           l3463 2D88  
                         l3551 17EA                           l3543 1764                           l3535 16D8  
                         l3527 1690                           l3519 167A                           l3615 302C  
                         l3607 2D44                           l3481 24B8                           l3473 2434  
                         l3297 19D6                           l3289 194C                           l3393 1140  
                         l3385 10BC                           l3377 10B0                           l3369 10A4  
                         l3465 2D96                           l3561 181A                           l3553 17F6  
                         l3537 1718                           l3617 3030                           l3641 1D1C  
                         l3633 1CD2                           l3609 2D6A                           l3801 14BE  
                         l3483 251E                           l3475 2444                           l3299 1A3A  
                         l3395 1142                           l3467 2DBC                           l3491 2EB2  
                         l3571 18C6                           l3563 182E                           l3555 17F8  
                         l3539 174C                           l3547 176A                           l3619 3048  
                         l3651 1E42                           l3643 1D9C                           l3627 1CC4  
                         l3803 14D0                           l3811 153C                           l3731 2CF8  
                         l3741 306E                           l3733 304E                           l3469 31A6  
                         l3485 253A                           l3477 2470                           l3397 116A  
                         l3389 10C8                           l3493 2EBA                           l3565 1834  
                         l3557 1808                           l3549 17AA                           l3581 2C38  
                         l3653 1E58                           l3645 1E1E                           l3813 154E  
                         l3821 15BA                           l3805 14E2                           l3725 2CAA  
                         l3901 1AF8                           ?_pad 0028                           l3751 3080  
                         l3743 3070                           l3735 3052                           l3479 2482  
                         l3399 11A0                           l3495 2EC2                           l3567 1846  
                         l3559 180A                           l3591 2C68                           l3583 2C5E  
                         l3655 1E5C                           l3647 1E28                           l3663 1E86  
                         l3639 1CD6                           l3671 232C                           l3831 1632  
                         l3823 15CC                           l3815 1560                           l3807 14F4  
                         l3727 2CCC                           l3903 1AFC                           l3753 3082  
                         l3745 3072                           l3737 305A                           l3841 2F6C  
                         l3497 2EDE                           l3489 2EA0                           l3569 1886  
                         l3577 18CC                           l3593 2C90                           l3665 1E8A  
                         l3657 1E72                           l3649 1E2E                           l3681 2416  
                         l3673 2336                           l3833 165C                           l3825 15DE  
                         l3817 1572                           l3809 152C                           l3729 2CF2  
                         l3913 1B0C                           l3905 1B02                           l3921 1B38  
                         l3755 3084                           l3747 3074                           l3739 306C  
                         l3771 296C                           l3843 2F70                           l3835 2F44  
                         l3691 30C0                           l3595 2C94                           l3667 1E9A  
                         l3659 1E76                           l3683 241E                           l3675 2382  
                         l3827 15F0                           l3819 15AA                           l3931 1B72  
                         l3923 1B4A                           l3915 1B1C                           l3907 1B06  
                         l3757 3154                           l3749 3076                           l3773 2A08  
                         l3765 2968                           l3837 2F48                           l3845 2F74  
                         l3693 30C4                           l3597 2C98                           l3589 2C64  
                         l3669 1E9C                           l3677 23CE                           l3829 1628  
                         l3781 1416                           l3941 1B90                           l3925 1B56  
                         l3933 1B78                           l3917 1B1E                           l3775 2A0A  
                         l3759 2964                           l3839 2F4C                           l3695 30CA  
                         l3687 316E                           l3599 2D18                           l3679 23D6  
                         l3791 1478                           l3783 1416                           l3951 1C06  
                         l3935 1B8A                           l3927 1B6C                           l3919 1B2E  
                         l3777 2A1A                           l3697 30CE                           l3689 3170  
                         l3793 1480                           l3785 142A                           l3953 1C08  
                         l3961 1C30                           l3929 1B70                           l3779 2A1C  
                         l3699 30DC                           l3795 1492                           l3787 1452  
                         l3971 1C90                           l3963 1C42                           l3955 1C18  
                         l3947 1B94                           l3797 14A4                           l3789 1466  
                         l3973 1C98                           l3965 1C52                           l3957 1C1A  
                         l3949 1BD4                           l3799 14B6                           l3975 1CAA  
                         l3967 1C76                           l3959 1C2A                           l3895 1AD8  
                         l3977 1CB2                           l3969 1C7E                           l3897 1AE0  
                         l3899 1AE4                           STR_1 102D                           STR_2 1001  
                         STR_3 101F                           STR_4 1011                           u3000 1A6C  
                         u3001 1A68                           u3010 1A86                           u3011 1A82  
                         u3100 202C                           u3020 1AA0                           u3101 2028  
                         u3021 1A9C                           u3030 1AAE                           u3110 1060  
                         u3031 1AAA                           u3111 105C                           u3040 1EEA  
                         u3200 12E6                           u3120 1132                           u3041 1EE6  
                         u3201 12E2                           u3121 112E                           u3050 1F24  
                         u3210 1390                           u3130 1140                           u3051 1F20  
                         u3211 138C                           u3131 113C                           u3060 1F40  
                         u3140 116A                           u3220 2DDC                           u3300 17EA  
                         u3061 1F3C                           u3141 1166                           u3221 2DD8  
                         u3301 17E6                           u3230 2444                           u3070 2002  
                         u3150 11AE                           u3310 1808                           u3231 2440  
                         u3071 1FFC                           u3151 11AA                           u3311 1804  
                         u3240 2482                           u3080 2004                           u3160 1230  
                         u3320 181A                           u3400 1D9C                           u3241 247E  
                         u3161 122A                           u3321 1816                           u3401 1D98  
                         u3250 251E                           u3090 201A                           u3170 1232  
                         u3330 182E                           u3410 1E58                           u3251 251A  
                         u3091 2016                           u3331 182A                           u3411 1E54  
                         u3180 1248                           u3260 2B40                           u3340 2CA8  
                         u3420 1E9A                           u3181 1244                           u3261 2B3C  
                         u3341 2CA4                           u3421 1E96                           u2710 28AC  
                         u3190 1270                           u3270 16D8                           u3430 1EAC  
                         u3350 2D7E                           u3510 2D16                           u2711 28A8  
                         u3191 126C                           u3271 16D4                           u3431 1EA8  
                         u3351 2D7A                           u3511 2D12                           u3520 2A1A  
                         u2720 28BE                           u2800 25D0                           u3280 1718  
                         u3360 302C                           u3440 2382                           u3600 14B6  
                         u3521 2A16                           u2721 28BA                           u2801 25CC  
                         u3281 1714                           u3361 3028                           u3441 237E  
                         u3601 14B2                           u3530 2A2C                           u2730 28E6  
                         u2810 271E                           u3290 17AA                           u3450 23CE  
                         u3610 14D0                           u3531 2A28                           u2731 28E2  
                         u2811 271A                           u3291 17A6                           u3451 23CA  
                         u3611 14CC                           u3700 2F8A                           u3460 30F6  
                         u2900 2F0A                           u2740 291C                           u2820 2748  
                         u3620 14E2                           u3540 142A                           u3701 2F86  
                         u3461 30F2                           u2901 2F06                           u2741 2918  
                         u2821 2744                           u3621 14DE                           u3541 1426  
                         u2910 2F38                           u2830 2776                           u2750 2FCE  
                         u3390 1D1C                           u3630 14F4                           u3550 144A  
                         u2911 2F34                           u2831 2772                           u2751 2FCA  
                         u3391 1D18                           u3631 14F0                           u3551 1446  
                         u2920 263E                           u2760 3120                           u2840 27DE  
                         u3640 154E                           u3560 1466                           u2921 263A  
                         u2761 311C                           u2841 27DA                           u3641 154A  
                         u3561 1462                           u2930 2664                           u2850 2800  
                         u3650 1560                           u3570 1478                           u2931 2660  
                         u2771 2542                           u2851 27FC                           u3651 155C  
                         u3571 1474                           u2940 2684                           u2780 2566  
                         u2860 285C                           u3660 1572                           u3580 1492  
                         u3900 1C42                           u3820 1AF8                           u2941 2680  
                         u2781 2562                           u2861 2858                           u3661 156E  
                         u3581 148E                           u3901 1C3E                           u3821 1AF4  
                         u2950 26D2                           u2790 2590                           u2870 286A  
                         u3670 15CC                           u3590 14A4                           u3910 1C52  
                         u3830 1B2E                           u2951 26CE                           u2791 258C  
                         u2871 2866                           u3671 15C8                           u3591 14A0  
                         u3911 1C4E                           u3831 1B2A                           u2880 30B8  
                         u2960 26E0                           u3680 15DE                           u3920 1C76  
                         u3840 1B4A                           u2881 30B2                           u2961 26DC  
                         u3681 15DA                           u3921 1C72                           u3841 1B46  
                         u2890 30BA                           u2970 18DE                           u3690 15F0  
                         u3930 1C90                           u3850 1B6C                           u2971 18DA  
                         u3691 15EC                           u3931 1C8C                           u3851 1B68  
                         u2980 18FA                           u3940 1CAA                           u3860 1B8A  
                         u2981 18F6                           u3941 1CA6                           u3861 1B86  
                         u2990 1A4E                           u3870 1BD4                           u2991 1A4A  
                         u3871 1BD0                           u3880 1C18                           u3881 1C14  
                         _PIR1 000F9E                           u3890 1C2A                           u3891 1C26  
                         _dbuf 01CC                           _head 0031                           _atoi 1EAE  
                         _ctoa 262C                           _main 1AD8                           _tail 00E3  
                         _prec 0039                           _nout 00E9                           pad@i 0060  
                         pad@p 002C                           fsr1h 000FE2                           fsr2h 000FDA  
                         indf2 000FDF                           fsr1l 000FE1                           pad@w 0062  
                         fsr2l 000FD9                           btemp 0048                           _utoa 18D0  
                 _push_sub_rsp 2D18                           prodh 000FF4                           prodl 000FF3  
                         start 000E                   ?_packet_task 0001                   ___param_bank 000000  
             _timer_reach_flag 00F5                   buf_push@size 001B         __end_of_update_display 2BC4  
                        ??_pad 002E                   _BAUDCON1bits 000F7E                          ?_atoi 001F  
                        ?_ctoa 0021                          ?_main 0001                          ?_utoa 0064  
                        _T0CON 000FD5                __end_of___lodiv 262C                __end_of___lomod 27D0  
              __end_of___lwdiv 2C38                __end_of___lwmod 2E4A                          i2l141 300E  
                        i2l162 22CC                          i2l155 2E9E                          i2l174 2BBA  
                        i2l190 20FC                          i2l159 232A                          i2l191 20E8  
                        i2l176 2BAE                          i2l177 2B9C                          i2l193 20F6  
                        i2l179 2BC2                          i2l187 209C                          i2l189 2100  
                        i2l198 21D4                          i2l810 2C2E                          i2l820 2E40  
                        i2l817 2C36                          i2l827 2E48                   vfpfcnvrt@fmt 0086  
                        _TMR0H 000FD7                   vfpfcnvrt@llu 008E                          _TMR0L 000FD6  
                        _PORTB 000F81                          _PORTH 000F87                          _PORTJ 000F88  
                        _TRISB 000F93                          _TRISH 000F99                          _TRISJ 000F9A  
                _push_park_rsp 2ABC                __end_of_buf_pop 232C                          _digit 003F  
                        _flags 003B                          _inbuf 04E6                          _dummy 00EB  
                        _fputc 289A                          _fputs 2F8C                __end_of_isdigit 30C0  
                        atoi@n 002C                          pad@fp 0028                          atoi@s 001F  
                        _width 0037                          _queue 0100                          ctoa@c 0023  
                        _putch 31AC                          ctoa@l 0025                          ctoa@w 0027  
                        main@i 02E3                          main@j 02E5                __end_of_isspace 2F44  
                        tablat 000FF5                          ttemp5 0049                          ttemp6 004C  
                        ttemp7 0050                          utoa@d 0066                          utoa@i 0082  
                        utoa@n 007A                          utoa@p 0076                          utoa@w 0078  
                        status 000FD8                          wtemp8 0049                __end_of_sprintf 2EF2  
             ___lodiv@dividend 0018                __initialization 2A2E                   __end_of_atoi 2052  
                 __end_of_ctoa 2700                   __end_of_main 1CC4                   __end_of_utoa 1AD8  
              ?_update_display 0001                update_display@j 0008                 buf_isempty@buf 0005  
                       ??_atoi 0021                         ??_ctoa 0024                         ??_main 02DB  
                       ??_utoa 006E                  __activetblptr 000003                 ?_push_park_rsp 00B7  
           handle_subscr@level 00CA               ___lodiv@quotient 0028           __size_of_handle_exit 01EA  
         __size_of_handle_park 003E                         _ADCON0 000FC2                         _ADCON1 000FC1  
                       _ADCON2 000FC0           __size_of_enable_rxtx 0006                         ?_fputc 0018  
                       ?_fputs 0021                         _ADRESH 000FC4                         _ADRESL 000FC3  
         __end_of_disable_rxtx 31AC                         ?_putch 0001       __size_of_highPriorityISR 21E8  
                       _GODONE 007E11                         i2l2731 2E60                         i2l3701 21F2  
                       i2l2741 2E9C                         i2l2733 2E74                         i2l2911 2BE6  
                       i2l3623 2FD2                         i2l3711 2224                         i2l3703 2208  
                       i2l2735 2E7C                         i2l2727 2E4C                         i2l2921 2C20  
                       i2l2913 2BEE                         i2l2905 2BC4                         i2l3721 2322  
                       i2l3713 2256                         i2l2737 2E96                         i2l2729 2E5C  
                       i2l2923 2C22                         i2l2915 2BFC                         i2l2907 2BCC  
                       i2l2931 2E00                         i2l3715 2268                         i2l2925 2C28  
                       i2l2917 2C02                         i2l2909 2BDE                         i2l2941 2E3A  
                       i2l2933 2E08                         i2l3717 229E                         i2l3709 2214  
                       i2l2919 2C18                         i2l2935 2E16                         i2l2927 2DE6  
                       i2l3719 230A                         i2l2937 2E2C                         i2l2929 2DF8  
                       i2l2785 2B5A                         i2l2777 2B42                         i2l2939 2E34  
                       i2l2787 2B9A                         i2l2779 2B52                         i2l3851 208E  
                       i2l2789 2B9E                         i2l3861 20E4                         i2l3853 20A8  
                       i2l3871 211E                         i2l3863 210E                         i2l3855 20B2  
                       i2l3847 206C                         _INTCON 000FF2                         i2l3873 2120  
                       i2l3865 2110                         i2l3881 2190                         i2l3857 20C0  
                       i2l3849 207A                         i2l3891 21CE                         i2l3883 219E  
                       i2l3875 2124                         i2l3867 2118                         i2l3859 20D2  
                       i2l3893 21D2                         i2l3885 21A2                         i2l3877 216C  
                       i2l3869 211C                         i2l3887 21BA                         i2l3879 218A  
                       i2l3889 21CA                         _RCREG1 000FAE                         _RCSTA1 000FAB  
                vfpfcnvrt@done 0097                         _SPBRG1 000FAF                         _TXREG1 000FAD  
                       _TXSTA1 000FAC               _park_fee_counter 0280      push_park_rsp@response_buf 00BB  
         __size_of_buf_isempty 0040                   vfprintf@cfmt 00A1               __end_of_buf_push 253C  
                       ___wmul 312E                      ??___lodiv 0028                      ??___lomod 0028  
                    ??___lwdiv 0005                      ??___lwmod 000C               __end_of_init_adc 316E  
             __end_of_init_int 3088                         clear_0 2A76                         clear_1 2A88  
                       clear_2 2A94                         clear_3 2AA0                         clear_4 2AAC  
                       pad@buf 002A                         _outbuf 02E6                         ctoa@fp 0021  
                    ??_buf_pop 0008                         _strlen 30F8                         fputc@c 0018  
                       fputs@c 0025                         fputs@i 0026                         fputs@s 0021  
                    ??_isdigit 001A                   __mediumconst 0000                      ??_isspace 001A  
                       tblptrh 000FF7                         tblptrl 000FF6                         tblptru 000FF8  
                       putch@c 0001               __end_of_vfprintf 2DE6                         utoa@fp 0064  
                    ??_sprintf 0031               __end_of_try_park 18D0                     __accesstop 0060  
      __end_of__initialization 2AB2                  ___rparam_used 000001                 _selected_level 0040  
             ??_buf_push_inbuf 0001                 __pcstackCOMRAM 0001              _response_msg_flag 00ED  
                 __pidataBANK0 3198                   __pidataBANK1 3186           __size_of_packet_task 0048  
                __end_of_fputc 2964                  __end_of_fputs 2FD0                _seven_seg_value 00FC  
                __end_of_putch 31AE    __size_of_parse_sim_messages 0264                ??_push_park_rsp 00BA  
     push_sub_rsp@response_buf 00BC             __size_of_handle_go 0018            push_park_rsp@car_id 00B8  
    update_display@empty_count 0007                        ??_fputc 001C                        ??_fputs 0025  
         push_park_fee_rsp@fee 00B9                        ??_putch 0018                     __pbssBANK0 00E3  
                   __pbssBANK1 0100                     __pbssBANK2 0200            handle_subscr@car_id 00C8  
        __end_of_handle_subscr 2434             __size_of_init_vars 00CA              push_park_rsp@spot 00B7  
            ??_highPriorityISR 000E                        ?___wmul 0018                     _handle_end 30C0  
                      ?_strlen 0018          __size_of_disable_rxtx 0006              handle_exit@car_id 00D9  
           __size_of_vfpfcnvrt 03DE                        _SPBRGH1 000F7F                      ?_buf_push 0018  
            handle_park@car_id 00D7               ___lomod@dividend 0018                      ?_init_adc 0001  
                    ?_init_int 0001               ??_update_display 0001              __end_of_handle_go 3186  
                      __Hparam 0000                        __Lparam 0000                  _pic_msg_count 00F7  
              __size_of___wmul 0026                        ___lodiv 253C                        ___lomod 2700  
                      ___lwdiv 2BC4                   _disable_rxtx 31A6                        ___lwmod 2DE6  
                    ?_vfprintf 009B                   __psmallconst 1000                        __pcinit 2A2E  
                      __ramtop 1000                      ?_try_park 00C9                        __ptext0 1AD8  
                      __ptext1 2CAA                        __ptext2 1416                        __ptext3 232C  
                      __ptext4 2D18                        __ptext5 316E                        __ptext6 1CC4  
                      __ptext7 2C38                        __ptext8 3010                        __ptext9 167A  
                      _buf_pop 21F0                      _T0CONbits 000FD5                __size_of_strlen 0036  
                 __size_of_pad 00CA                        _isdigit 3088              __end_of_init_vars 2A2E  
                   _park_slots 017C                        _isspace 2EF2                        atoi@neg 0025  
                      _sprintf 2EA0                     ??_buf_push 001D                 __pintcode_body 2052  
         end_of_initialization 2AB2                        fputc@fp 001A                     ??_init_adc 0018  
                   ??_init_int 0018                        int_func 2052                        fputs@fp 0023  
            __end_of_vfpfcnvrt 1416                   try_park@spot 00D1                        postdec1 000FE5  
                      postdec2 000FDD                        postinc0 000FEE                        postinc1 000FE6  
                      postinc2 000FDE        push_park_fee_rsp@car_id 00B7                     ??_vfprintf 0031  
                  ?_handle_end 0001                        strlen@a 001A                     _tens_power 01F6  
                      strlen@s 0018              _push_park_fee_rsp 2C38                     ??_try_park 00CB  
          handle_exit@exit_fee 02D2                   _display_mode 0041             ?_push_park_fee_rsp 00B7  
                ??_handle_exit 00DB                  ??_handle_park 0031                  push_sub_rsp@i 00C7  
                ??_enable_rxtx 0018                      _TRISCbits 000F94                 _reserved_slots 012C  
          ??_push_park_fee_rsp 00BB                     buf_pop@buf 000D                  ??_buf_isempty 0001  
push_park_fee_rsp@response_buf 00BC                     main@result 02E1      __end_of_push_park_fee_rsp 2CAA  
                  vfpfcnvrt@ap 0088                    vfpfcnvrt@fp 0084                 __end_of___wmul 3154  
               __end_of_strlen 312E            start_initialization 2A2E                ___lodiv@divisor 0020  
              ___lodiv@counter 0030                    __end_of_pad 289A                  ?_push_emp_rsp 0001  
              _highPriorityISR 0008             push_park_fee_rsp@i 00C8            __end_of_handle_exit 1EAE  
          __end_of_handle_park 304E            __end_of_enable_rxtx 31A6              handle_subscr@spot 00CC  
                _msg_last_char 00F6            __size_of_handle_end 0038                  ?_push_sub_rsp 00B7  
                ??_packet_task 0018                    vfprintf@fmt 009D     __end_of_parse_sim_messages 167A  
                     ??___wmul 001C            __end_of_buf_isempty 3010                    __pdataBANK0 00F8  
                  __pdataBANK1 01EC                     init_vars@i 001C                     init_vars@j 001D  
                     ??_strlen 001A          __end_of_push_park_rsp 2B42                    __pbssBIGRAM 02E6  
              buf_push_inbuf@v 0001                    __pbssCOMRAM 0031                  __pcstackBANK0 0060  
                __pcstackBANK2 02D0                 ??_push_emp_rsp 00B7                 ??_push_sub_rsp 00BB  
           push_park_rsp@level 00C7              __size_of_buf_push 0108                      _atoi$1280 002B  
                    _atoi$1281 0029                      _atoi$1279 0027           handle_subscr@sub_fee 00D2  
            __size_of_init_adc 001A              __size_of_init_int 003A               ___lwdiv@dividend 0001  
                    __pintcode 0008                      _digit_map 01EC                      _handle_go 316E  
                     ?___lodiv 0018     __size_of_push_park_fee_rsp 0072                       ?___lomod 0018  
                     ?___lwdiv 0001                       ?___lwmod 0008            __end_of_packet_task 2F8C  
            __size_of_vfprintf 0066                       ?_buf_pop 0006                ___lomod@divisor 0020  
      __size_of_buf_push_inbuf 0056        __end_of_highPriorityISR 21F0         __size_of_handle_subscr 0108  
                  __smallconst 1000                ___lomod@counter 0028                       ?_isdigit 0018  
            __size_of_try_park 0256                    _handle_exit 1CC4                    _handle_park 3010  
                     ?_isspace 0018                    _enable_rxtx 31A0               ___lwdiv@quotient 0005  
                     ?_sprintf 00A3                 __size_of_fputc 00CA                      _init_vars 2964  
               __size_of_fputs 0044                 __size_of_putch 0002                 ___wmul@product 001C  
                     _PIE1bits 000F9D                    _buf_isempty 2FD0                       i2u212_40 2E74  
                     i2u220_40 2B9A                       i2u212_41 2E70                       i2u220_41 2B96  
                     i2u213_40 2E96                       i2u221_40 2BAE                       i2u213_41 2E92  
                     i2u221_41 2BAA                       i2u241_40 2BDE                       i2u241_41 2BDA  
                     i2u242_40 2BFC                       i2u242_41 2BF8                       i2u243_40 2C18  
                     i2u219_40 2B52                       i2u243_41 2C14                       i2u219_41 2B4E  
                     i2u244_40 2DF8                       i2u244_41 2DF4                       i2u245_40 2E16  
                     i2u245_41 2E12                       i2u246_40 2E2C                       i2u350_40 230A  
                     i2u246_41 2E28                       i2u350_41 2306                       i2u337_40 300C  
                     i2u337_41 3006                       _PIR1bits 000F9E                       i2u338_40 300E  
                     i2u347_40 2208                       i2u371_40 207A                       i2u347_41 2204  
                     i2u371_41 2076                       i2u348_40 2224                       i2u380_40 21BA  
                     i2u372_40 208E                       i2u348_41 2220                       i2u380_41 21B6  
                     i2u372_41 208A                       i2u349_40 2268                       i2u381_40 21CA  
                     i2u373_40 209C                       i2u349_41 2264                       i2u381_41 21C6  
                     i2u373_41 2098                       i2u374_40 20C0                       i2u374_41 20BC  
                     i2u375_40 20E4                       i2u375_41 20E0                       i2u376_40 20F6  
                     i2u376_41 20F2                       i2u377_40 210E                       i2u377_41 210A  
                     i2u378_44 2180                       i2u378_45 217C                       i2u379_40 219E  
                     i2u379_41 219A                      _sim_count 00F1                      _pkt_valid 0045  
 push_emp_rsp@emp_response_buf 00B8                      _pkt_state 0047                     ?_handle_go 0001  
                    _timer_adc 00F3                   ??_handle_end 0018                      _vfpfcnvrt 1038  
                    main@i_724 02E4              ___wmul@multiplier 0018                      buf_push@v 0018  
                 _isspace$1297 001E                     vfpfcnvrt@c 0096                     ?_init_vars 0001  
                _sim_msg_array 0120                    _INTCON2bits 000FF1                      copy_data0 2A42  
                    copy_data1 2A62                 _timer_previous 00F4             __end_of_handle_end 30F8  
                _handle_subscr 232C             push_sub_rsp@car_id 00B7                       __Hrparam 0000  
                   vfprintf@ap 009F                       __Lrparam 0000                     vfprintf@fp 009B  
                  _packet_task 2F44                    _empty_space 00FE           __end_of_push_emp_rsp 2D18  
           highPriorityISR@rb4 0017               __size_of___lodiv 00F0               __size_of___lomod 00D0  
                   ?_vfpfcnvrt 0084               __size_of___lwdiv 0074               __size_of___lwmod 0064  
      __size_of_update_display 0082           __end_of_push_sub_rsp 2D80               ?_highPriorityISR 0001  
             __size_of_buf_pop 013C                     sprintf@fmt 00A5               __size_of_isdigit 0038  
              ___lwdiv@divisor 0003               __size_of_isspace 0052                ___lwdiv@counter 0007  
                     __ptext10 2ABC                       __ptext11 2EA0                       __ptext20 262C  
                     __ptext12 2D80                       __ptext21 289A                       __ptext13 1038  
                     __ptext30 31A0                       __ptext22 31AC                       __ptext14 18D0  
                     __ptext31 31A6                       __ptext23 1EAE                       __ptext15 27D0  
                     __ptext40 2DE6                       __ptext32 2964                       __ptext24 2EF2  
                     __ptext16 30F8                       __ptext41 2BC4                       __ptext33 304E  
                     __ptext25 3088                       __ptext17 2F8C                       __ptext34 3154  
                     __ptext26 312E                       __ptext18 2700                       __ptext27 2434  
                     __ptext19 253C                       __ptext36 2B42                       __ptext28 30C0  
                     __ptext37 2E4A                       __ptext29 2F44                       __ptext38 21F0  
                     __ptext39 2FD0        handle_exit@ready_car_id 02D0                       _buf_push 2434  
             __size_of_sprintf 0052                       _init_adc 3154                 ?_handle_subscr 00C8  
                __size_of_atoi 01A4                  __size_of_ctoa 00D4                  __size_of_main 01EC  
                     _init_int 304E                  __size_of_utoa 0208                   _pkt_bodysize 0046  
               try_park@car_id 00C9                       _pkt_body 0200                       _prev_rb4 0042  
                  ??_handle_go 0018                       int$flags 0048                       _vfprintf 2D80  
                     buf_pop@v 000B                       _try_park 167A                 _buf_push_inbuf 2E4A  
               _vfpfcnvrt$1260 0099                     _INTCONbits 000FF2             _parse_sim_messages 1416  
                     isdigit@c 0018                    ??_init_vars 0018                       intlevel2 0000  
                try_park@F4992 00F8                      sprintf@ap 00AF            ?_parse_sim_messages 0001  
               push_park_rsp@i 00C8                   handle_exit@i 02D4                   handle_exit@j 02D5  
             ___lwmod@dividend 0008                       isspace@c 0018                     _RCSTA1bits 000FAB  
                    try_park@i 00D5                      try_park@j 00D6                  ?_disable_rxtx 0001  
       __end_of_buf_push_inbuf 2EA0           ??_parse_sim_messages 00E1                    ??_vfpfcnvrt 008A  
                     sprintf@f 00B1                       sprintf@s 00A3                ___lwmod@divisor 000A  
                 ?_handle_exit 00D9                   ?_handle_park 00D7                ___lwmod@counter 000C  
                 ?_enable_rxtx 0001                push_sub_rsp@fee 00B9                ??_handle_subscr 00CE  
       highPriorityISR@current 0016          __size_of_push_emp_rsp 006E                   ?_buf_isempty 0001  
       __size_of_push_park_rsp 0086  
